	.file	"example.cpp"
	.text
	.section	.text._ZSt21is_constant_evaluatedv,"axG",@progbits,_ZSt21is_constant_evaluatedv,comdat
	.weak	_ZSt21is_constant_evaluatedv
	.type	_ZSt21is_constant_evaluatedv, @function
_ZSt21is_constant_evaluatedv:
.LFB15:
	.cfi_startproc
	pushq	%rbp
	.cfi_def_cfa_offset 16
	.cfi_offset 6, -16
	movq	%rsp, %rbp
	.cfi_def_cfa_register 6
	movl	$0, %eax
	popq	%rbp
	.cfi_def_cfa 7, 8
	ret
	.cfi_endproc
.LFE15:
	.size	_ZSt21is_constant_evaluatedv, .-_ZSt21is_constant_evaluatedv
	.section	.text._ZSteqSt15strong_orderingNSt9__cmp_cat8__unspecE,"axG",@progbits,_ZSteqSt15strong_orderingNSt9__cmp_cat8__unspecE,comdat
	.weak	_ZSteqSt15strong_orderingNSt9__cmp_cat8__unspecE
	.type	_ZSteqSt15strong_orderingNSt9__cmp_cat8__unspecE, @function
_ZSteqSt15strong_orderingNSt9__cmp_cat8__unspecE:
.LFB59:
	.cfi_startproc
	pushq	%rbp
	.cfi_def_cfa_offset 16
	.cfi_offset 6, -16
	movq	%rsp, %rbp
	.cfi_def_cfa_register 6
	movb	%dil, -1(%rbp)
	movzbl	-1(%rbp), %eax
	testb	%al, %al
	sete	%al
	popq	%rbp
	.cfi_def_cfa 7, 8
	ret
	.cfi_endproc
.LFE59:
	.size	_ZSteqSt15strong_orderingNSt9__cmp_cat8__unspecE, .-_ZSteqSt15strong_orderingNSt9__cmp_cat8__unspecE
	.section	.text._ZStltSt15strong_orderingNSt9__cmp_cat8__unspecE,"axG",@progbits,_ZStltSt15strong_orderingNSt9__cmp_cat8__unspecE,comdat
	.weak	_ZStltSt15strong_orderingNSt9__cmp_cat8__unspecE
	.type	_ZStltSt15strong_orderingNSt9__cmp_cat8__unspecE, @function
_ZStltSt15strong_orderingNSt9__cmp_cat8__unspecE:
.LFB60:
	.cfi_startproc
	pushq	%rbp
	.cfi_def_cfa_offset 16
	.cfi_offset 6, -16
	movq	%rsp, %rbp
	.cfi_def_cfa_register 6
	movb	%dil, -1(%rbp)
	movzbl	-1(%rbp), %eax
	shrb	$7, %al
	popq	%rbp
	.cfi_def_cfa 7, 8
	ret
	.cfi_endproc
.LFE60:
	.size	_ZStltSt15strong_orderingNSt9__cmp_cat8__unspecE, .-_ZStltSt15strong_orderingNSt9__cmp_cat8__unspecE
	.section	.text._ZnwmPv,"axG",@progbits,_ZnwmPv,comdat
	.weak	_ZnwmPv
	.type	_ZnwmPv, @function
_ZnwmPv:
.LFB227:
	.cfi_startproc
	pushq	%rbp
	.cfi_def_cfa_offset 16
	.cfi_offset 6, -16
	movq	%rsp, %rbp
	.cfi_def_cfa_register 6
	movq	%rdi, -8(%rbp)
	movq	%rsi, -16(%rbp)
	movq	-16(%rbp), %rax
	popq	%rbp
	.cfi_def_cfa 7, 8
	ret
	.cfi_endproc
.LFE227:
	.size	_ZnwmPv, .-_ZnwmPv
	.section	.text._ZdlPvS_,"axG",@progbits,_ZdlPvS_,comdat
	.weak	_ZdlPvS_
	.type	_ZdlPvS_, @function
_ZdlPvS_:
.LFB229:
	.cfi_startproc
	pushq	%rbp
	.cfi_def_cfa_offset 16
	.cfi_offset 6, -16
	movq	%rsp, %rbp
	.cfi_def_cfa_register 6
	movq	%rdi, -8(%rbp)
	movq	%rsi, -16(%rbp)
	nop
	popq	%rbp
	.cfi_def_cfa 7, 8
	ret
	.cfi_endproc
.LFE229:
	.size	_ZdlPvS_, .-_ZdlPvS_
	.section	.text._ZN9__gnu_cxx5__ops15__iter_less_valEv,"axG",@progbits,_ZN9__gnu_cxx5__ops15__iter_less_valEv,comdat
	.weak	_ZN9__gnu_cxx5__ops15__iter_less_valEv
	.type	_ZN9__gnu_cxx5__ops15__iter_less_valEv, @function
_ZN9__gnu_cxx5__ops15__iter_less_valEv:
.LFB472:
	.cfi_startproc
	pushq	%rbp
	.cfi_def_cfa_offset 16
	.cfi_offset 6, -16
	movq	%rsp, %rbp
	.cfi_def_cfa_register 6
	nop
	popq	%rbp
	.cfi_def_cfa 7, 8
	ret
	.cfi_endproc
.LFE472:
	.size	_ZN9__gnu_cxx5__ops15__iter_less_valEv, .-_ZN9__gnu_cxx5__ops15__iter_less_valEv
	.section	.text._ZN9__gnu_cxx5__ops15__val_less_iterEv,"axG",@progbits,_ZN9__gnu_cxx5__ops15__val_less_iterEv,comdat
	.weak	_ZN9__gnu_cxx5__ops15__val_less_iterEv
	.type	_ZN9__gnu_cxx5__ops15__val_less_iterEv, @function
_ZN9__gnu_cxx5__ops15__val_less_iterEv:
.LFB478:
	.cfi_startproc
	pushq	%rbp
	.cfi_def_cfa_offset 16
	.cfi_offset 6, -16
	movq	%rsp, %rbp
	.cfi_def_cfa_register 6
	nop
	popq	%rbp
	.cfi_def_cfa 7, 8
	ret
	.cfi_endproc
.LFE478:
	.size	_ZN9__gnu_cxx5__ops15__val_less_iterEv, .-_ZN9__gnu_cxx5__ops15__val_less_iterEv
	.section	.text._ZSt8to_charsPcS_mi,"axG",@progbits,_ZSt8to_charsPcS_mi,comdat
	.weak	_ZSt8to_charsPcS_mi
	.type	_ZSt8to_charsPcS_mi, @function
_ZSt8to_charsPcS_mi:
.LFB708:
	.cfi_startproc
	pushq	%rbp
	.cfi_def_cfa_offset 16
	.cfi_offset 6, -16
	movq	%rsp, %rbp
	.cfi_def_cfa_register 6
	subq	$32, %rsp
	movq	%rdi, -8(%rbp)
	movq	%rsi, -16(%rbp)
	movq	%rdx, -24(%rbp)
	movl	%ecx, -28(%rbp)
	movl	-28(%rbp), %ecx
	movq	-24(%rbp), %rdx
	movq	-16(%rbp), %rsi
	movq	-8(%rbp), %rax
	movq	%rax, %rdi
	call	_ZSt12__to_chars_iImESt15to_chars_resultPcS1_T_i
	leave
	.cfi_def_cfa 7, 8
	ret
	.cfi_endproc
.LFE708:
	.size	_ZSt8to_charsPcS_mi, .-_ZSt8to_charsPcS_mi
	.section	.text._ZSt11__bit_widthIjEiT_,"axG",@progbits,_ZSt11__bit_widthIjEiT_,comdat
	.weak	_ZSt11__bit_widthIjEiT_
	.type	_ZSt11__bit_widthIjEiT_, @function
_ZSt11__bit_widthIjEiT_:
.LFB717:
	.cfi_startproc
	pushq	%rbp
	.cfi_def_cfa_offset 16
	.cfi_offset 6, -16
	movq	%rsp, %rbp
	.cfi_def_cfa_register 6
	subq	$32, %rsp
	movl	%edi, -20(%rbp)
	movl	$32, -4(%rbp)
	movl	-20(%rbp), %eax
	movl	%eax, %edi
	call	_ZSt13__countl_zeroIjEiT_
	movl	$32, %edx
	subl	%eax, %edx
	movl	%edx, %eax
	leave
	.cfi_def_cfa 7, 8
	ret
	.cfi_endproc
.LFE717:
	.size	_ZSt11__bit_widthIjEiT_, .-_ZSt11__bit_widthIjEiT_
	.section	.text._ZNSt11char_traitsIcE6assignERcRKc,"axG",@progbits,_ZNSt11char_traitsIcE6assignERcRKc,comdat
	.weak	_ZNSt11char_traitsIcE6assignERcRKc
	.type	_ZNSt11char_traitsIcE6assignERcRKc, @function
_ZNSt11char_traitsIcE6assignERcRKc:
.LFB1026:
	.cfi_startproc
	pushq	%rbp
	.cfi_def_cfa_offset 16
	.cfi_offset 6, -16
	movq	%rsp, %rbp
	.cfi_def_cfa_register 6
	subq	$16, %rsp
	movq	%rdi, -8(%rbp)
	movq	%rsi, -16(%rbp)
	movl	$0, %eax
	testb	%al, %al
	je	.L20
	movq	-16(%rbp), %rdx
	movq	-8(%rbp), %rax
	movq	%rdx, %rsi
	movq	%rax, %rdi
	call	_ZSt12construct_atIcJRKcEQaant20is_unbounded_array_vIT_ErqXgsnwcvPvLi0E_S2_pispcl7declvalIT0_EEEEEPS2_S5_DpOS4_
	jmp	.L22
.L20:
	movq	-16(%rbp), %rax
	movzbl	(%rax), %edx
	movq	-8(%rbp), %rax
	movb	%dl, (%rax)
.L22:
	nop
	leave
	.cfi_def_cfa 7, 8
	ret
	.cfi_endproc
.LFE1026:
	.size	_ZNSt11char_traitsIcE6assignERcRKc, .-_ZNSt11char_traitsIcE6assignERcRKc
	.section	.text._ZNSt11char_traitsIcE2eqERKcS2_,"axG",@progbits,_ZNSt11char_traitsIcE2eqERKcS2_,comdat
	.weak	_ZNSt11char_traitsIcE2eqERKcS2_
	.type	_ZNSt11char_traitsIcE2eqERKcS2_, @function
_ZNSt11char_traitsIcE2eqERKcS2_:
.LFB1027:
	.cfi_startproc
	pushq	%rbp
	.cfi_def_cfa_offset 16
	.cfi_offset 6, -16
	movq	%rsp, %rbp
	.cfi_def_cfa_register 6
	movq	%rdi, -8(%rbp)
	movq	%rsi, -16(%rbp)
	movq	-8(%rbp), %rax
	movzbl	(%rax), %edx
	movq	-16(%rbp), %rax
	movzbl	(%rax), %eax
	cmpb	%al, %dl
	sete	%al
	popq	%rbp
	.cfi_def_cfa 7, 8
	ret
	.cfi_endproc
.LFE1027:
	.size	_ZNSt11char_traitsIcE2eqERKcS2_, .-_ZNSt11char_traitsIcE2eqERKcS2_
	.section	.text._ZNSt11char_traitsIcE2ltERKcS2_,"axG",@progbits,_ZNSt11char_traitsIcE2ltERKcS2_,comdat
	.weak	_ZNSt11char_traitsIcE2ltERKcS2_
	.type	_ZNSt11char_traitsIcE2ltERKcS2_, @function
_ZNSt11char_traitsIcE2ltERKcS2_:
.LFB1028:
	.cfi_startproc
	pushq	%rbp
	.cfi_def_cfa_offset 16
	.cfi_offset 6, -16
	movq	%rsp, %rbp
	.cfi_def_cfa_register 6
	movq	%rdi, -8(%rbp)
	movq	%rsi, -16(%rbp)
	movq	-8(%rbp), %rax
	movzbl	(%rax), %eax
	movl	%eax, %edx
	movq	-16(%rbp), %rax
	movzbl	(%rax), %eax
	cmpb	%al, %dl
	setb	%al
	popq	%rbp
	.cfi_def_cfa 7, 8
	ret
	.cfi_endproc
.LFE1028:
	.size	_ZNSt11char_traitsIcE2ltERKcS2_, .-_ZNSt11char_traitsIcE2ltERKcS2_
	.section	.text._ZNSt11char_traitsIcE7compareEPKcS2_m,"axG",@progbits,_ZNSt11char_traitsIcE7compareEPKcS2_m,comdat
	.weak	_ZNSt11char_traitsIcE7compareEPKcS2_m
	.type	_ZNSt11char_traitsIcE7compareEPKcS2_m, @function
_ZNSt11char_traitsIcE7compareEPKcS2_m:
.LFB1029:
	.cfi_startproc
	pushq	%rbp
	.cfi_def_cfa_offset 16
	.cfi_offset 6, -16
	movq	%rsp, %rbp
	.cfi_def_cfa_register 6
	subq	$48, %rsp
	movq	%rdi, -24(%rbp)
	movq	%rsi, -32(%rbp)
	movq	%rdx, -40(%rbp)
	cmpq	$0, -40(%rbp)
	jne	.L28
	movl	$0, %eax
	jmp	.L29
.L28:
	movl	$0, %eax
	testb	%al, %al
	je	.L31
	movq	$0, -8(%rbp)
	jmp	.L32
.L35:
	movq	-32(%rbp), %rdx
	movq	-8(%rbp), %rax
	addq	%rax, %rdx
	movq	-24(%rbp), %rcx
	movq	-8(%rbp), %rax
	addq	%rcx, %rax
	movq	%rdx, %rsi
	movq	%rax, %rdi
	call	_ZNSt11char_traitsIcE2ltERKcS2_
	testb	%al, %al
	je	.L33
	movl	$-1, %eax
	jmp	.L29
.L33:
	movq	-24(%rbp), %rdx
	movq	-8(%rbp), %rax
	addq	%rax, %rdx
	movq	-32(%rbp), %rcx
	movq	-8(%rbp), %rax
	addq	%rcx, %rax
	movq	%rdx, %rsi
	movq	%rax, %rdi
	call	_ZNSt11char_traitsIcE2ltERKcS2_
	testb	%al, %al
	je	.L34
	movl	$1, %eax
	jmp	.L29
.L34:
	addq	$1, -8(%rbp)
.L32:
	movq	-8(%rbp), %rax
	cmpq	-40(%rbp), %rax
	jb	.L35
	movl	$0, %eax
	jmp	.L29
.L31:
	movq	-40(%rbp), %rdx
	movq	-32(%rbp), %rcx
	movq	-24(%rbp), %rax
	movq	%rcx, %rsi
	movq	%rax, %rdi
	call	memcmp
	nop
.L29:
	leave
	.cfi_def_cfa 7, 8
	ret
	.cfi_endproc
.LFE1029:
	.size	_ZNSt11char_traitsIcE7compareEPKcS2_m, .-_ZNSt11char_traitsIcE7compareEPKcS2_m
	.section	.text._ZNSt11char_traitsIcE6lengthEPKc,"axG",@progbits,_ZNSt11char_traitsIcE6lengthEPKc,comdat
	.weak	_ZNSt11char_traitsIcE6lengthEPKc
	.type	_ZNSt11char_traitsIcE6lengthEPKc, @function
_ZNSt11char_traitsIcE6lengthEPKc:
.LFB1030:
	.cfi_startproc
	pushq	%rbp
	.cfi_def_cfa_offset 16
	.cfi_offset 6, -16
	movq	%rsp, %rbp
	.cfi_def_cfa_register 6
	subq	$16, %rsp
	movq	%rdi, -8(%rbp)
	movl	$0, %eax
	testb	%al, %al
	je	.L38
	movq	-8(%rbp), %rax
	movq	%rax, %rdi
	call	_ZN9__gnu_cxx11char_traitsIcE6lengthEPKc
	jmp	.L39
.L38:
	movq	-8(%rbp), %rax
	movq	%rax, %rdi
	call	strlen
	nop
.L39:
	leave
	.cfi_def_cfa 7, 8
	ret
	.cfi_endproc
.LFE1030:
	.size	_ZNSt11char_traitsIcE6lengthEPKc, .-_ZNSt11char_traitsIcE6lengthEPKc
	.section	.text._ZNSt11char_traitsIcE4findEPKcmRS1_,"axG",@progbits,_ZNSt11char_traitsIcE4findEPKcmRS1_,comdat
	.weak	_ZNSt11char_traitsIcE4findEPKcmRS1_
	.type	_ZNSt11char_traitsIcE4findEPKcmRS1_, @function
_ZNSt11char_traitsIcE4findEPKcmRS1_:
.LFB1031:
	.cfi_startproc
	pushq	%rbp
	.cfi_def_cfa_offset 16
	.cfi_offset 6, -16
	movq	%rsp, %rbp
	.cfi_def_cfa_register 6
	subq	$32, %rsp
	movq	%rdi, -8(%rbp)
	movq	%rsi, -16(%rbp)
	movq	%rdx, -24(%rbp)
	cmpq	$0, -16(%rbp)
	jne	.L41
	movl	$0, %eax
	jmp	.L42
.L41:
	movl	$0, %eax
	testb	%al, %al
	je	.L44
	movq	-24(%rbp), %rdx
	movq	-16(%rbp), %rcx
	movq	-8(%rbp), %rax
	movq	%rcx, %rsi
	movq	%rax, %rdi
	call	_ZN9__gnu_cxx11char_traitsIcE4findEPKcmRS2_
	jmp	.L42
.L44:
	movq	-24(%rbp), %rax
	movzbl	(%rax), %eax
	movsbl	%al, %ecx
	movq	-16(%rbp), %rdx
	movq	-8(%rbp), %rax
	movl	%ecx, %esi
	movq	%rax, %rdi
	call	memchr
	nop
.L42:
	leave
	.cfi_def_cfa 7, 8
	ret
	.cfi_endproc
.LFE1031:
	.size	_ZNSt11char_traitsIcE4findEPKcmRS1_, .-_ZNSt11char_traitsIcE4findEPKcmRS1_
	.section	.text._ZNSt11char_traitsIcE4moveEPcPKcm,"axG",@progbits,_ZNSt11char_traitsIcE4moveEPcPKcm,comdat
	.weak	_ZNSt11char_traitsIcE4moveEPcPKcm
	.type	_ZNSt11char_traitsIcE4moveEPcPKcm, @function
_ZNSt11char_traitsIcE4moveEPcPKcm:
.LFB1032:
	.cfi_startproc
	pushq	%rbp
	.cfi_def_cfa_offset 16
	.cfi_offset 6, -16
	movq	%rsp, %rbp
	.cfi_def_cfa_register 6
	subq	$32, %rsp
	movq	%rdi, -8(%rbp)
	movq	%rsi, -16(%rbp)
	movq	%rdx, -24(%rbp)
	cmpq	$0, -24(%rbp)
	jne	.L46
	movq	-8(%rbp), %rax
	jmp	.L47
.L46:
	movl	$0, %eax
	testb	%al, %al
	je	.L49
	movq	-24(%rbp), %rdx
	movq	-16(%rbp), %rcx
	movq	-8(%rbp), %rax
	movq	%rcx, %rsi
	movq	%rax, %rdi
	call	_ZN9__gnu_cxx11char_traitsIcE4moveEPcPKcm
	jmp	.L47
.L49:
	movq	-24(%rbp), %rdx
	movq	-16(%rbp), %rcx
	movq	-8(%rbp), %rax
	movq	%rcx, %rsi
	movq	%rax, %rdi
	call	memmove
	nop
.L47:
	leave
	.cfi_def_cfa 7, 8
	ret
	.cfi_endproc
.LFE1032:
	.size	_ZNSt11char_traitsIcE4moveEPcPKcm, .-_ZNSt11char_traitsIcE4moveEPcPKcm
	.section	.text._ZNSt11char_traitsIcE4copyEPcPKcm,"axG",@progbits,_ZNSt11char_traitsIcE4copyEPcPKcm,comdat
	.weak	_ZNSt11char_traitsIcE4copyEPcPKcm
	.type	_ZNSt11char_traitsIcE4copyEPcPKcm, @function
_ZNSt11char_traitsIcE4copyEPcPKcm:
.LFB1033:
	.cfi_startproc
	pushq	%rbp
	.cfi_def_cfa_offset 16
	.cfi_offset 6, -16
	movq	%rsp, %rbp
	.cfi_def_cfa_register 6
	subq	$32, %rsp
	movq	%rdi, -8(%rbp)
	movq	%rsi, -16(%rbp)
	movq	%rdx, -24(%rbp)
	cmpq	$0, -24(%rbp)
	jne	.L51
	movq	-8(%rbp), %rax
	jmp	.L52
.L51:
	movl	$0, %eax
	testb	%al, %al
	je	.L54
	movq	-24(%rbp), %rdx
	movq	-16(%rbp), %rcx
	movq	-8(%rbp), %rax
	movq	%rcx, %rsi
	movq	%rax, %rdi
	call	_ZN9__gnu_cxx11char_traitsIcE4copyEPcPKcm
	jmp	.L52
.L54:
	movq	-8(%rbp), %rdx
	movq	-16(%rbp), %rax
	movq	%rdx, %rcx
	movq	%rax, %rsi
	movq	-24(%rbp), %rax
	movq	%rax, %rdx
	movq	%rcx, %rdi
	call	memcpy
	nop
.L52:
	leave
	.cfi_def_cfa 7, 8
	ret
	.cfi_endproc
.LFE1033:
	.size	_ZNSt11char_traitsIcE4copyEPcPKcm, .-_ZNSt11char_traitsIcE4copyEPcPKcm
	.section	.text._ZNSt11char_traitsIcE6assignEPcmc,"axG",@progbits,_ZNSt11char_traitsIcE6assignEPcmc,comdat
	.weak	_ZNSt11char_traitsIcE6assignEPcmc
	.type	_ZNSt11char_traitsIcE6assignEPcmc, @function
_ZNSt11char_traitsIcE6assignEPcmc:
.LFB1034:
	.cfi_startproc
	pushq	%rbp
	.cfi_def_cfa_offset 16
	.cfi_offset 6, -16
	movq	%rsp, %rbp
	.cfi_def_cfa_register 6
	subq	$32, %rsp
	movq	%rdi, -8(%rbp)
	movq	%rsi, -16(%rbp)
	movl	%edx, %eax
	movb	%al, -20(%rbp)
	cmpq	$0, -16(%rbp)
	jne	.L56
	movq	-8(%rbp), %rax
	jmp	.L57
.L56:
	movl	$0, %eax
	testb	%al, %al
	je	.L59
	movsbl	-20(%rbp), %edx
	movq	-16(%rbp), %rcx
	movq	-8(%rbp), %rax
	movq	%rcx, %rsi
	movq	%rax, %rdi
	call	_ZN9__gnu_cxx11char_traitsIcE6assignEPcmc
	jmp	.L57
.L59:
	movsbl	-20(%rbp), %ecx
	movq	-16(%rbp), %rdx
	movq	-8(%rbp), %rax
	movl	%ecx, %esi
	movq	%rax, %rdi
	call	memset
	nop
.L57:
	leave
	.cfi_def_cfa 7, 8
	ret
	.cfi_endproc
.LFE1034:
	.size	_ZNSt11char_traitsIcE6assignEPcmc, .-_ZNSt11char_traitsIcE6assignEPcmc
	.weak	_ZNSt6ranges4_Cpo5beginE
	.section	.rodata._ZNSt6ranges4_Cpo5beginE,"aG",@progbits,_ZNSt6ranges4_Cpo5beginE,comdat
	.type	_ZNSt6ranges4_Cpo5beginE, @gnu_unique_object
	.size	_ZNSt6ranges4_Cpo5beginE, 1
_ZNSt6ranges4_Cpo5beginE:
	.zero	1
	.weak	_ZNSt6ranges4_Cpo3endE
	.section	.rodata._ZNSt6ranges4_Cpo3endE,"aG",@progbits,_ZNSt6ranges4_Cpo3endE,comdat
	.type	_ZNSt6ranges4_Cpo3endE, @gnu_unique_object
	.size	_ZNSt6ranges4_Cpo3endE, 1
_ZNSt6ranges4_Cpo3endE:
	.zero	1
	.weak	_ZNSt6ranges4_Cpo4sizeE
	.section	.rodata._ZNSt6ranges4_Cpo4sizeE,"aG",@progbits,_ZNSt6ranges4_Cpo4sizeE,comdat
	.type	_ZNSt6ranges4_Cpo4sizeE, @gnu_unique_object
	.size	_ZNSt6ranges4_Cpo4sizeE, 1
_ZNSt6ranges4_Cpo4sizeE:
	.zero	1
	.weak	_ZNSt6ranges4_Cpo5emptyE
	.section	.rodata._ZNSt6ranges4_Cpo5emptyE,"aG",@progbits,_ZNSt6ranges4_Cpo5emptyE,comdat
	.type	_ZNSt6ranges4_Cpo5emptyE, @gnu_unique_object
	.size	_ZNSt6ranges4_Cpo5emptyE, 1
_ZNSt6ranges4_Cpo5emptyE:
	.zero	1
	.weak	_ZNSt6ranges4_Cpo4dataE
	.section	.rodata._ZNSt6ranges4_Cpo4dataE,"aG",@progbits,_ZNSt6ranges4_Cpo4dataE,comdat
	.type	_ZNSt6ranges4_Cpo4dataE, @gnu_unique_object
	.size	_ZNSt6ranges4_Cpo4dataE, 1
_ZNSt6ranges4_Cpo4dataE:
	.zero	1
	.section	.rodata
	.align 8
.LC0:
	.string	"%s: __pos (which is %zu) > __size (which is %zu)"
	.section	.text._ZSt10__sv_checkmmPKc,"axG",@progbits,_ZSt10__sv_checkmmPKc,comdat
	.weak	_ZSt10__sv_checkmmPKc
	.type	_ZSt10__sv_checkmmPKc, @function
_ZSt10__sv_checkmmPKc:
.LFB1460:
	.cfi_startproc
	pushq	%rbp
	.cfi_def_cfa_offset 16
	.cfi_offset 6, -16
	movq	%rsp, %rbp
	.cfi_def_cfa_register 6
	subq	$32, %rsp
	movq	%rdi, -8(%rbp)
	movq	%rsi, -16(%rbp)
	movq	%rdx, -24(%rbp)
	movq	-16(%rbp), %rax
	cmpq	%rax, -8(%rbp)
	jnb	.L61
	movq	-8(%rbp), %rcx
	movq	-16(%rbp), %rdx
	movq	-24(%rbp), %rax
	movq	%rax, %rsi
	movl	$.LC0, %edi
	movl	$0, %eax
	call	_ZSt24__throw_out_of_range_fmtPKcz
.L61:
	movq	-16(%rbp), %rax
	leave
	.cfi_def_cfa 7, 8
	ret
	.cfi_endproc
.LFE1460:
	.size	_ZSt10__sv_checkmmPKc, .-_ZSt10__sv_checkmmPKc
	.weak	_ZNSt6ranges4copyE
	.section	.rodata._ZNSt6ranges4copyE,"aG",@progbits,_ZNSt6ranges4copyE,comdat
	.type	_ZNSt6ranges4copyE, @gnu_unique_object
	.size	_ZNSt6ranges4copyE, 1
_ZNSt6ranges4copyE:
	.zero	1
	.section	.text._ZNSt7__cxx1112basic_stringIcSt11char_traitsIcESaIcEE12_Alloc_hiderD2Ev,"axG",@progbits,_ZNSt7__cxx1112basic_stringIcSt11char_traitsIcESaIcEE12_Alloc_hiderD5Ev,comdat
	.align 2
	.weak	_ZNSt7__cxx1112basic_stringIcSt11char_traitsIcESaIcEE12_Alloc_hiderD2Ev
	.type	_ZNSt7__cxx1112basic_stringIcSt11char_traitsIcESaIcEE12_Alloc_hiderD2Ev, @function
_ZNSt7__cxx1112basic_stringIcSt11char_traitsIcESaIcEE12_Alloc_hiderD2Ev:
.LFB1871:
	.cfi_startproc
	pushq	%rbp
	.cfi_def_cfa_offset 16
	.cfi_offset 6, -16
	movq	%rsp, %rbp
	.cfi_def_cfa_register 6
	movq	%rdi, -24(%rbp)
	movq	-24(%rbp), %rax
	movq	%rax, -8(%rbp)
	nop
	nop
	popq	%rbp
	.cfi_def_cfa 7, 8
	ret
	.cfi_endproc
.LFE1871:
	.size	_ZNSt7__cxx1112basic_stringIcSt11char_traitsIcESaIcEE12_Alloc_hiderD2Ev, .-_ZNSt7__cxx1112basic_stringIcSt11char_traitsIcESaIcEE12_Alloc_hiderD2Ev
	.weak	_ZNSt7__cxx1112basic_stringIcSt11char_traitsIcESaIcEE12_Alloc_hiderD1Ev
	.set	_ZNSt7__cxx1112basic_stringIcSt11char_traitsIcESaIcEE12_Alloc_hiderD1Ev,_ZNSt7__cxx1112basic_stringIcSt11char_traitsIcESaIcEE12_Alloc_hiderD2Ev
	.section	.text._ZNSt7__cxx1112basic_stringIcSt11char_traitsIcESaIcEEC2EvQ26is_default_constructible_vIT1_E,"axG",@progbits,_ZNSt7__cxx1112basic_stringIcSt11char_traitsIcESaIcEEC5EvQ26is_default_constructible_vIT1_E,comdat
	.align 2
	.weak	_ZNSt7__cxx1112basic_stringIcSt11char_traitsIcESaIcEEC2EvQ26is_default_constructible_vIT1_E
	.type	_ZNSt7__cxx1112basic_stringIcSt11char_traitsIcESaIcEEC2EvQ26is_default_constructible_vIT1_E, @function
_ZNSt7__cxx1112basic_stringIcSt11char_traitsIcESaIcEEC2EvQ26is_default_constructible_vIT1_E:
.LFB1873:
	.cfi_startproc
	.cfi_personality 0x3,__gxx_personality_v0
	.cfi_lsda 0x3,.LLSDA1873
	pushq	%rbp
	.cfi_def_cfa_offset 16
	.cfi_offset 6, -16
	movq	%rsp, %rbp
	.cfi_def_cfa_register 6
	pushq	%rbx
	subq	$56, %rsp
	.cfi_offset 3, -24
	movq	%rdi, -56(%rbp)
	movq	-56(%rbp), %rbx
	leaq	-41(%rbp), %rax
	movq	%rax, -40(%rbp)
	nop
	nop
	movq	-56(%rbp), %rax
	movq	%rax, %rdi
	call	_ZNSt7__cxx1112basic_stringIcSt11char_traitsIcESaIcEE13_M_local_dataEv
	movq	%rax, %rcx
	leaq	-41(%rbp), %rax
	movq	%rax, %rdx
	movq	%rcx, %rsi
	movq	%rbx, %rdi
	call	_ZNSt7__cxx1112basic_stringIcSt11char_traitsIcESaIcEE12_Alloc_hiderC1EPcOS3_
	nop
	movq	-56(%rbp), %rax
	movq	%rax, -24(%rbp)
	call	_ZSt21is_constant_evaluatedv
	testb	%al, %al
	je	.L69
	movq	$0, -32(%rbp)
	jmp	.L66
.L67:
	movq	-24(%rbp), %rdx
	movq	-32(%rbp), %rax
	addq	%rdx, %rax
	addq	$16, %rax
	movb	$0, (%rax)
	addq	$1, -32(%rbp)
.L66:
	cmpq	$15, -32(%rbp)
	jbe	.L67
.L69:
	nop
	movq	-56(%rbp), %rax
	movl	$0, %esi
	movq	%rax, %rdi
	call	_ZNSt7__cxx1112basic_stringIcSt11char_traitsIcESaIcEE13_M_set_lengthEm
	nop
	movq	-8(%rbp), %rbx
	leave
	.cfi_def_cfa 7, 8
	ret
	.cfi_endproc
.LFE1873:
	.section	.gcc_except_table._ZNSt7__cxx1112basic_stringIcSt11char_traitsIcESaIcEEC2EvQ26is_default_constructible_vIT1_E,"aG",@progbits,_ZNSt7__cxx1112basic_stringIcSt11char_traitsIcESaIcEEC5EvQ26is_default_constructible_vIT1_E,comdat
.LLSDA1873:
	.byte	0xff
	.byte	0xff
	.byte	0x1
	.uleb128 .LLSDACSE1873-.LLSDACSB1873
.LLSDACSB1873:
.LLSDACSE1873:
	.section	.text._ZNSt7__cxx1112basic_stringIcSt11char_traitsIcESaIcEEC2EvQ26is_default_constructible_vIT1_E,"axG",@progbits,_ZNSt7__cxx1112basic_stringIcSt11char_traitsIcESaIcEEC5EvQ26is_default_constructible_vIT1_E,comdat
	.size	_ZNSt7__cxx1112basic_stringIcSt11char_traitsIcESaIcEEC2EvQ26is_default_constructible_vIT1_E, .-_ZNSt7__cxx1112basic_stringIcSt11char_traitsIcESaIcEEC2EvQ26is_default_constructible_vIT1_E
	.weak	_ZNSt7__cxx1112basic_stringIcSt11char_traitsIcESaIcEEC2Ev
	.set	_ZNSt7__cxx1112basic_stringIcSt11char_traitsIcESaIcEEC2Ev,_ZNSt7__cxx1112basic_stringIcSt11char_traitsIcESaIcEEC2EvQ26is_default_constructible_vIT1_E
	.weak	_ZNSt7__cxx1112basic_stringIcSt11char_traitsIcESaIcEEC1EvQ26is_default_constructible_vIT1_E
	.set	_ZNSt7__cxx1112basic_stringIcSt11char_traitsIcESaIcEEC1EvQ26is_default_constructible_vIT1_E,_ZNSt7__cxx1112basic_stringIcSt11char_traitsIcESaIcEEC2EvQ26is_default_constructible_vIT1_E
	.weak	_ZNSt7__cxx1112basic_stringIcSt11char_traitsIcESaIcEEC1Ev
	.set	_ZNSt7__cxx1112basic_stringIcSt11char_traitsIcESaIcEEC1Ev,_ZNSt7__cxx1112basic_stringIcSt11char_traitsIcESaIcEEC1EvQ26is_default_constructible_vIT1_E
	.section	.text._ZNSt7__cxx1112basic_stringIcSt11char_traitsIcESaIcEE13_M_local_dataEv,"axG",@progbits,_ZNSt7__cxx1112basic_stringIcSt11char_traitsIcESaIcEE13_M_local_dataEv,comdat
	.align 2
	.weak	_ZNSt7__cxx1112basic_stringIcSt11char_traitsIcESaIcEE13_M_local_dataEv
	.type	_ZNSt7__cxx1112basic_stringIcSt11char_traitsIcESaIcEE13_M_local_dataEv, @function
_ZNSt7__cxx1112basic_stringIcSt11char_traitsIcESaIcEE13_M_local_dataEv:
.LFB1875:
	.cfi_startproc
	pushq	%rbp
	.cfi_def_cfa_offset 16
	.cfi_offset 6, -16
	movq	%rsp, %rbp
	.cfi_def_cfa_register 6
	subq	$16, %rsp
	movq	%rdi, -8(%rbp)
	movq	-8(%rbp), %rax
	addq	$16, %rax
	movq	%rax, %rdi
	call	_ZNSt19__ptr_traits_ptr_toIPccLb0EE10pointer_toERc
	leave
	.cfi_def_cfa 7, 8
	ret
	.cfi_endproc
.LFE1875:
	.size	_ZNSt7__cxx1112basic_stringIcSt11char_traitsIcESaIcEE13_M_local_dataEv, .-_ZNSt7__cxx1112basic_stringIcSt11char_traitsIcESaIcEE13_M_local_dataEv
	.section	.text._ZNSt19__ptr_traits_ptr_toIPccLb0EE10pointer_toERc,"axG",@progbits,_ZNSt19__ptr_traits_ptr_toIPccLb0EE10pointer_toERc,comdat
	.weak	_ZNSt19__ptr_traits_ptr_toIPccLb0EE10pointer_toERc
	.type	_ZNSt19__ptr_traits_ptr_toIPccLb0EE10pointer_toERc, @function
_ZNSt19__ptr_traits_ptr_toIPccLb0EE10pointer_toERc:
.LFB1876:
	.cfi_startproc
	pushq	%rbp
	.cfi_def_cfa_offset 16
	.cfi_offset 6, -16
	movq	%rsp, %rbp
	.cfi_def_cfa_register 6
	movq	%rdi, -24(%rbp)
	movq	-24(%rbp), %rax
	movq	%rax, -8(%rbp)
	movq	-8(%rbp), %rax
	movq	%rax, -16(%rbp)
	movq	-16(%rbp), %rax
	nop
	popq	%rbp
	.cfi_def_cfa 7, 8
	ret
	.cfi_endproc
.LFE1876:
	.size	_ZNSt19__ptr_traits_ptr_toIPccLb0EE10pointer_toERc, .-_ZNSt19__ptr_traits_ptr_toIPccLb0EE10pointer_toERc
	.section	.text._ZNSt7__cxx1112basic_stringIcSt11char_traitsIcESaIcEE12_Alloc_hiderC2EPcOS3_,"axG",@progbits,_ZNSt7__cxx1112basic_stringIcSt11char_traitsIcESaIcEE12_Alloc_hiderC5EPcOS3_,comdat
	.align 2
	.weak	_ZNSt7__cxx1112basic_stringIcSt11char_traitsIcESaIcEE12_Alloc_hiderC2EPcOS3_
	.type	_ZNSt7__cxx1112basic_stringIcSt11char_traitsIcESaIcEE12_Alloc_hiderC2EPcOS3_, @function
_ZNSt7__cxx1112basic_stringIcSt11char_traitsIcESaIcEE12_Alloc_hiderC2EPcOS3_:
.LFB1886:
	.cfi_startproc
	pushq	%rbp
	.cfi_def_cfa_offset 16
	.cfi_offset 6, -16
	movq	%rsp, %rbp
	.cfi_def_cfa_register 6
	movq	%rdi, -56(%rbp)
	movq	%rsi, -64(%rbp)
	movq	%rdx, -72(%rbp)
	movq	-72(%rbp), %rax
	movq	%rax, -40(%rbp)
	movq	-40(%rbp), %rax
	movq	-56(%rbp), %rdx
	movq	%rdx, -8(%rbp)
	movq	%rax, -16(%rbp)
	movq	-8(%rbp), %rax
	movq	%rax, -24(%rbp)
	movq	-16(%rbp), %rax
	movq	%rax, -32(%rbp)
	nop
	nop
	movq	-56(%rbp), %rax
	movq	-64(%rbp), %rdx
	movq	%rdx, (%rax)
	nop
	popq	%rbp
	.cfi_def_cfa 7, 8
	ret
	.cfi_endproc
.LFE1886:
	.size	_ZNSt7__cxx1112basic_stringIcSt11char_traitsIcESaIcEE12_Alloc_hiderC2EPcOS3_, .-_ZNSt7__cxx1112basic_stringIcSt11char_traitsIcESaIcEE12_Alloc_hiderC2EPcOS3_
	.weak	_ZNSt7__cxx1112basic_stringIcSt11char_traitsIcESaIcEE12_Alloc_hiderC1EPcOS3_
	.set	_ZNSt7__cxx1112basic_stringIcSt11char_traitsIcESaIcEE12_Alloc_hiderC1EPcOS3_,_ZNSt7__cxx1112basic_stringIcSt11char_traitsIcESaIcEE12_Alloc_hiderC2EPcOS3_
	.section	.text._ZNSt8__detail14__to_chars_lenIjEEjT_i,"axG",@progbits,_ZNSt8__detail14__to_chars_lenIjEEjT_i,comdat
	.weak	_ZNSt8__detail14__to_chars_lenIjEEjT_i
	.type	_ZNSt8__detail14__to_chars_lenIjEEjT_i, @function
_ZNSt8__detail14__to_chars_lenIjEEjT_i:
.LFB1901:
	.cfi_startproc
	pushq	%rbp
	.cfi_def_cfa_offset 16
	.cfi_offset 6, -16
	movq	%rsp, %rbp
	.cfi_def_cfa_register 6
	movl	%edi, -36(%rbp)
	movl	%esi, -40(%rbp)
	movl	$1, -4(%rbp)
	movl	-40(%rbp), %eax
	imull	%eax, %eax
	movl	%eax, -8(%rbp)
	movl	-40(%rbp), %eax
	movl	-8(%rbp), %edx
	imull	%edx, %eax
	movl	%eax, -12(%rbp)
	movl	-40(%rbp), %eax
	imull	-12(%rbp), %eax
	movl	%eax, %eax
	movq	%rax, -24(%rbp)
.L84:
	movl	-40(%rbp), %eax
	cmpl	%eax, -36(%rbp)
	jnb	.L79
	movl	-4(%rbp), %eax
	jmp	.L80
.L79:
	movl	-36(%rbp), %eax
	cmpl	-8(%rbp), %eax
	jnb	.L81
	movl	-4(%rbp), %eax
	addl	$1, %eax
	jmp	.L80
.L81:
	movl	-36(%rbp), %eax
	cmpl	-12(%rbp), %eax
	jnb	.L82
	movl	-4(%rbp), %eax
	addl	$2, %eax
	jmp	.L80
.L82:
	movl	-36(%rbp), %eax
	cmpq	-24(%rbp), %rax
	jnb	.L83
	movl	-4(%rbp), %eax
	addl	$3, %eax
	jmp	.L80
.L83:
	movl	-36(%rbp), %eax
	movl	$0, %edx
	divq	-24(%rbp)
	movl	%eax, -36(%rbp)
	addl	$4, -4(%rbp)
	jmp	.L84
.L80:
	popq	%rbp
	.cfi_def_cfa 7, 8
	ret
	.cfi_endproc
.LFE1901:
	.size	_ZNSt8__detail14__to_chars_lenIjEEjT_i, .-_ZNSt8__detail14__to_chars_lenIjEEjT_i
	.section	.text._ZNSt8__detail14__to_chars_lenImEEjT_i,"axG",@progbits,_ZNSt8__detail14__to_chars_lenImEEjT_i,comdat
	.weak	_ZNSt8__detail14__to_chars_lenImEEjT_i
	.type	_ZNSt8__detail14__to_chars_lenImEEjT_i, @function
_ZNSt8__detail14__to_chars_lenImEEjT_i:
.LFB1906:
	.cfi_startproc
	pushq	%rbp
	.cfi_def_cfa_offset 16
	.cfi_offset 6, -16
	movq	%rsp, %rbp
	.cfi_def_cfa_register 6
	movq	%rdi, -40(%rbp)
	movl	%esi, -44(%rbp)
	movl	$1, -4(%rbp)
	movl	-44(%rbp), %eax
	imull	%eax, %eax
	movl	%eax, -8(%rbp)
	movl	-44(%rbp), %eax
	movl	-8(%rbp), %edx
	imull	%edx, %eax
	movl	%eax, -12(%rbp)
	movl	-44(%rbp), %eax
	imull	-12(%rbp), %eax
	movl	%eax, %eax
	movq	%rax, -24(%rbp)
.L91:
	movl	-44(%rbp), %eax
	movl	%eax, %eax
	cmpq	%rax, -40(%rbp)
	jnb	.L86
	movl	-4(%rbp), %eax
	jmp	.L87
.L86:
	movl	-8(%rbp), %eax
	cmpq	%rax, -40(%rbp)
	jnb	.L88
	movl	-4(%rbp), %eax
	addl	$1, %eax
	jmp	.L87
.L88:
	movl	-12(%rbp), %eax
	cmpq	%rax, -40(%rbp)
	jnb	.L89
	movl	-4(%rbp), %eax
	addl	$2, %eax
	jmp	.L87
.L89:
	movq	-40(%rbp), %rax
	cmpq	-24(%rbp), %rax
	jnb	.L90
	movl	-4(%rbp), %eax
	addl	$3, %eax
	jmp	.L87
.L90:
	movq	-40(%rbp), %rax
	movl	$0, %edx
	divq	-24(%rbp)
	movq	%rax, -40(%rbp)
	addl	$4, -4(%rbp)
	jmp	.L91
.L87:
	popq	%rbp
	.cfi_def_cfa 7, 8
	ret
	.cfi_endproc
.LFE1906:
	.size	_ZNSt8__detail14__to_chars_lenImEEjT_i, .-_ZNSt8__detail14__to_chars_lenImEEjT_i
	.section	.text._ZNSt8__detail14__to_chars_lenIyEEjT_i,"axG",@progbits,_ZNSt8__detail14__to_chars_lenIyEEjT_i,comdat
	.weak	_ZNSt8__detail14__to_chars_lenIyEEjT_i
	.type	_ZNSt8__detail14__to_chars_lenIyEEjT_i, @function
_ZNSt8__detail14__to_chars_lenIyEEjT_i:
.LFB1911:
	.cfi_startproc
	pushq	%rbp
	.cfi_def_cfa_offset 16
	.cfi_offset 6, -16
	movq	%rsp, %rbp
	.cfi_def_cfa_register 6
	movq	%rdi, -40(%rbp)
	movl	%esi, -44(%rbp)
	movl	$1, -4(%rbp)
	movl	-44(%rbp), %eax
	imull	%eax, %eax
	movl	%eax, -8(%rbp)
	movl	-44(%rbp), %eax
	movl	-8(%rbp), %edx
	imull	%edx, %eax
	movl	%eax, -12(%rbp)
	movl	-44(%rbp), %eax
	imull	-12(%rbp), %eax
	movl	%eax, %eax
	movq	%rax, -24(%rbp)
.L98:
	movl	-44(%rbp), %eax
	movl	%eax, %eax
	cmpq	%rax, -40(%rbp)
	jnb	.L93
	movl	-4(%rbp), %eax
	jmp	.L94
.L93:
	movl	-8(%rbp), %eax
	cmpq	%rax, -40(%rbp)
	jnb	.L95
	movl	-4(%rbp), %eax
	addl	$1, %eax
	jmp	.L94
.L95:
	movl	-12(%rbp), %eax
	cmpq	%rax, -40(%rbp)
	jnb	.L96
	movl	-4(%rbp), %eax
	addl	$2, %eax
	jmp	.L94
.L96:
	movq	-40(%rbp), %rax
	cmpq	-24(%rbp), %rax
	jnb	.L97
	movl	-4(%rbp), %eax
	addl	$3, %eax
	jmp	.L94
.L97:
	movq	-40(%rbp), %rax
	movl	$0, %edx
	divq	-24(%rbp)
	movq	%rax, -40(%rbp)
	addl	$4, -4(%rbp)
	jmp	.L98
.L94:
	popq	%rbp
	.cfi_def_cfa 7, 8
	ret
	.cfi_endproc
.LFE1911:
	.size	_ZNSt8__detail14__to_chars_lenIyEEjT_i, .-_ZNSt8__detail14__to_chars_lenIyEEjT_i
	.section	.text._ZNKSt7__cxx1112basic_stringIcSt11char_traitsIcESaIcEE4sizeEv,"axG",@progbits,_ZNKSt7__cxx1112basic_stringIcSt11char_traitsIcESaIcEE4sizeEv,comdat
	.align 2
	.weak	_ZNKSt7__cxx1112basic_stringIcSt11char_traitsIcESaIcEE4sizeEv
	.type	_ZNKSt7__cxx1112basic_stringIcSt11char_traitsIcESaIcEE4sizeEv, @function
_ZNKSt7__cxx1112basic_stringIcSt11char_traitsIcESaIcEE4sizeEv:
.LFB2872:
	.cfi_startproc
	pushq	%rbp
	.cfi_def_cfa_offset 16
	.cfi_offset 6, -16
	movq	%rsp, %rbp
	.cfi_def_cfa_register 6
	subq	$32, %rsp
	movq	%rdi, -24(%rbp)
	movq	-24(%rbp), %rax
	movq	8(%rax), %rax
	movq	%rax, -8(%rbp)
	movq	-24(%rbp), %rax
	movq	%rax, %rdi
	call	_ZNKSt7__cxx1112basic_stringIcSt11char_traitsIcESaIcEE8max_sizeEv
	cmpq	-8(%rbp), %rax
	setb	%al
	testb	%al, %al
	movq	-8(%rbp), %rax
	leave
	.cfi_def_cfa 7, 8
	ret
	.cfi_endproc
.LFE2872:
	.size	_ZNKSt7__cxx1112basic_stringIcSt11char_traitsIcESaIcEE4sizeEv, .-_ZNKSt7__cxx1112basic_stringIcSt11char_traitsIcESaIcEE4sizeEv
	.section	.text._ZNSt9__unicode17__is_scalar_valueEDi,"axG",@progbits,_ZNSt9__unicode17__is_scalar_valueEDi,comdat
	.weak	_ZNSt9__unicode17__is_scalar_valueEDi
	.type	_ZNSt9__unicode17__is_scalar_valueEDi, @function
_ZNSt9__unicode17__is_scalar_valueEDi:
.LFB3330:
	.cfi_startproc
	pushq	%rbp
	.cfi_def_cfa_offset 16
	.cfi_offset 6, -16
	movq	%rsp, %rbp
	.cfi_def_cfa_register 6
	movl	%edi, -4(%rbp)
	cmpl	$55295, -4(%rbp)
	ja	.L103
	movl	$1, %eax
	jmp	.L104
.L103:
	cmpl	$57343, -4(%rbp)
	jbe	.L105
	cmpl	$1114111, -4(%rbp)
	ja	.L105
	movl	$1, %eax
	jmp	.L107
.L105:
	movl	$0, %eax
.L107:
	nop
.L104:
	popq	%rbp
	.cfi_def_cfa 7, 8
	ret
	.cfi_endproc
.LFE3330:
	.size	_ZNSt9__unicode17__is_scalar_valueEDi, .-_ZNSt9__unicode17__is_scalar_valueEDi
	.section	.text._ZNKSt9__unicode5_ReplclEv,"axG",@progbits,_ZNKSt9__unicode5_ReplclEv,comdat
	.align 2
	.weak	_ZNKSt9__unicode5_ReplclEv
	.type	_ZNKSt9__unicode5_ReplclEv, @function
_ZNKSt9__unicode5_ReplclEv:
.LFB3332:
	.cfi_startproc
	pushq	%rbp
	.cfi_def_cfa_offset 16
	.cfi_offset 6, -16
	movq	%rsp, %rbp
	.cfi_def_cfa_register 6
	movq	%rdi, -8(%rbp)
	movl	$65533, %eax
	popq	%rbp
	.cfi_def_cfa 7, 8
	ret
	.cfi_endproc
.LFE3332:
	.size	_ZNKSt9__unicode5_ReplclEv, .-_ZNKSt9__unicode5_ReplclEv
	.weak	_ZNSt9__unicode9__v16_0_013__width_edgesE
	.section	.rodata._ZNSt9__unicode9__v16_0_013__width_edgesE,"aG",@progbits,_ZNSt9__unicode9__v16_0_013__width_edgesE,comdat
	.align 32
	.type	_ZNSt9__unicode9__v16_0_013__width_edgesE, @gnu_unique_object
	.size	_ZNSt9__unicode9__v16_0_013__width_edgesE, 824
_ZNSt9__unicode9__v16_0_013__width_edgesE:
	.long	4352
	.long	4448
	.long	8986
	.long	8988
	.long	9001
	.long	9003
	.long	9193
	.long	9197
	.long	9200
	.long	9201
	.long	9203
	.long	9204
	.long	9725
	.long	9727
	.long	9748
	.long	9750
	.long	9776
	.long	9784
	.long	9800
	.long	9812
	.long	9855
	.long	9856
	.long	9866
	.long	9872
	.long	9875
	.long	9876
	.long	9889
	.long	9890
	.long	9898
	.long	9900
	.long	9917
	.long	9919
	.long	9924
	.long	9926
	.long	9934
	.long	9935
	.long	9940
	.long	9941
	.long	9962
	.long	9963
	.long	9970
	.long	9972
	.long	9973
	.long	9974
	.long	9978
	.long	9979
	.long	9981
	.long	9982
	.long	9989
	.long	9990
	.long	9994
	.long	9996
	.long	10024
	.long	10025
	.long	10060
	.long	10061
	.long	10062
	.long	10063
	.long	10067
	.long	10070
	.long	10071
	.long	10072
	.long	10133
	.long	10136
	.long	10160
	.long	10161
	.long	10175
	.long	10176
	.long	11035
	.long	11037
	.long	11088
	.long	11089
	.long	11093
	.long	11094
	.long	11904
	.long	11930
	.long	11931
	.long	12020
	.long	12032
	.long	12246
	.long	12272
	.long	12351
	.long	12353
	.long	12439
	.long	12441
	.long	12544
	.long	12549
	.long	12592
	.long	12593
	.long	12687
	.long	12688
	.long	12774
	.long	12783
	.long	12831
	.long	12832
	.long	12872
	.long	12880
	.long	42125
	.long	42128
	.long	42183
	.long	43360
	.long	43389
	.long	44032
	.long	55204
	.long	63744
	.long	64256
	.long	65040
	.long	65050
	.long	65072
	.long	65107
	.long	65108
	.long	65127
	.long	65128
	.long	65132
	.long	65281
	.long	65377
	.long	65504
	.long	65511
	.long	94176
	.long	94181
	.long	94192
	.long	94194
	.long	94208
	.long	100344
	.long	100352
	.long	101590
	.long	101631
	.long	101641
	.long	110576
	.long	110580
	.long	110581
	.long	110588
	.long	110589
	.long	110591
	.long	110592
	.long	110883
	.long	110898
	.long	110899
	.long	110928
	.long	110931
	.long	110933
	.long	110934
	.long	110948
	.long	110952
	.long	110960
	.long	111356
	.long	119552
	.long	119639
	.long	119648
	.long	119671
	.long	126980
	.long	126981
	.long	127183
	.long	127184
	.long	127374
	.long	127375
	.long	127377
	.long	127387
	.long	127488
	.long	127491
	.long	127504
	.long	127548
	.long	127552
	.long	127561
	.long	127568
	.long	127570
	.long	127584
	.long	127590
	.long	127744
	.long	128592
	.long	128640
	.long	128710
	.long	128716
	.long	128717
	.long	128720
	.long	128723
	.long	128725
	.long	128728
	.long	128732
	.long	128736
	.long	128747
	.long	128749
	.long	128756
	.long	128765
	.long	128992
	.long	129004
	.long	129008
	.long	129009
	.long	129280
	.long	129536
	.long	129648
	.long	129661
	.long	129664
	.long	129674
	.long	129679
	.long	129735
	.long	129742
	.long	129757
	.long	129759
	.long	129770
	.long	129776
	.long	129785
	.long	131072
	.long	196606
	.long	196608
	.long	262142
	.weak	_ZNSt9__unicode9__v16_0_014__escape_edgesE
	.section	.rodata._ZNSt9__unicode9__v16_0_014__escape_edgesE,"aG",@progbits,_ZNSt9__unicode9__v16_0_014__escape_edgesE,comdat
	.align 32
	.type	_ZNSt9__unicode9__v16_0_014__escape_edgesE, @gnu_unique_object
	.size	_ZNSt9__unicode9__v16_0_014__escape_edgesE, 5892
_ZNSt9__unicode9__v16_0_014__escape_edgesE:
	.long	1
	.long	66
	.long	255
	.long	322
	.long	347
	.long	348
	.long	1777
	.long	1780
	.long	1793
	.long	1800
	.long	1815
	.long	1816
	.long	1819
	.long	1820
	.long	1861
	.long	1862
	.long	2657
	.long	2658
	.long	2735
	.long	2738
	.long	2839
	.long	2842
	.long	2849
	.long	2850
	.long	2961
	.long	2976
	.long	3031
	.long	3038
	.long	3051
	.long	3084
	.long	3129
	.long	3130
	.long	3515
	.long	3516
	.long	3613
	.long	3616
	.long	3735
	.long	3738
	.long	3941
	.long	3968
	.long	4087
	.long	4090
	.long	4189
	.long	4192
	.long	4223
	.long	4224
	.long	4281
	.long	4284
	.long	4287
	.long	4288
	.long	4311
	.long	4320
	.long	4383
	.long	4398
	.long	4549
	.long	4550
	.long	4873
	.long	4874
	.long	4891
	.long	4894
	.long	4899
	.long	4902
	.long	4947
	.long	4948
	.long	4963
	.long	4964
	.long	4967
	.long	4972
	.long	4981
	.long	4984
	.long	5003
	.long	5006
	.long	5011
	.long	5014
	.long	5023
	.long	5038
	.long	5041
	.long	5048
	.long	5053
	.long	5054
	.long	5065
	.long	5068
	.long	5119
	.long	5122
	.long	5129
	.long	5130
	.long	5143
	.long	5150
	.long	5155
	.long	5158
	.long	5203
	.long	5204
	.long	5219
	.long	5220
	.long	5225
	.long	5226
	.long	5231
	.long	5232
	.long	5237
	.long	5240
	.long	5243
	.long	5244
	.long	5255
	.long	5262
	.long	5267
	.long	5270
	.long	5277
	.long	5282
	.long	5285
	.long	5298
	.long	5307
	.long	5308
	.long	5311
	.long	5324
	.long	5359
	.long	5378
	.long	5385
	.long	5386
	.long	5405
	.long	5406
	.long	5413
	.long	5414
	.long	5459
	.long	5460
	.long	5475
	.long	5476
	.long	5481
	.long	5482
	.long	5493
	.long	5496
	.long	5517
	.long	5518
	.long	5525
	.long	5526
	.long	5533
	.long	5536
	.long	5539
	.long	5568
	.long	5577
	.long	5580
	.long	5605
	.long	5618
	.long	5633
	.long	5634
	.long	5641
	.long	5642
	.long	5659
	.long	5662
	.long	5667
	.long	5670
	.long	5715
	.long	5716
	.long	5731
	.long	5732
	.long	5737
	.long	5738
	.long	5749
	.long	5752
	.long	5771
	.long	5774
	.long	5779
	.long	5782
	.long	5789
	.long	5802
	.long	5809
	.long	5816
	.long	5821
	.long	5822
	.long	5833
	.long	5836
	.long	5873
	.long	5892
	.long	5897
	.long	5898
	.long	5911
	.long	5916
	.long	5923
	.long	5924
	.long	5933
	.long	5938
	.long	5943
	.long	5944
	.long	5947
	.long	5948
	.long	5953
	.long	5958
	.long	5963
	.long	5968
	.long	5975
	.long	5980
	.long	6005
	.long	6012
	.long	6023
	.long	6028
	.long	6035
	.long	6036
	.long	6045
	.long	6048
	.long	6051
	.long	6062
	.long	6065
	.long	6092
	.long	6135
	.long	6144
	.long	6171
	.long	6172
	.long	6179
	.long	6180
	.long	6227
	.long	6228
	.long	6261
	.long	6264
	.long	6283
	.long	6284
	.long	6291
	.long	6292
	.long	6301
	.long	6314
	.long	6319
	.long	6320
	.long	6327
	.long	6330
	.long	6333
	.long	6336
	.long	6345
	.long	6348
	.long	6369
	.long	6382
	.long	6427
	.long	6428
	.long	6435
	.long	6436
	.long	6483
	.long	6484
	.long	6505
	.long	6506
	.long	6517
	.long	6520
	.long	6539
	.long	6540
	.long	6547
	.long	6548
	.long	6557
	.long	6570
	.long	6575
	.long	6586
	.long	6591
	.long	6592
	.long	6601
	.long	6604
	.long	6625
	.long	6626
	.long	6633
	.long	6656
	.long	6683
	.long	6684
	.long	6691
	.long	6692
	.long	6795
	.long	6796
	.long	6803
	.long	6804
	.long	6817
	.long	6824
	.long	6857
	.long	6860
	.long	6913
	.long	6914
	.long	6921
	.long	6922
	.long	6959
	.long	6964
	.long	7013
	.long	7014
	.long	7033
	.long	7034
	.long	7037
	.long	7040
	.long	7055
	.long	7060
	.long	7063
	.long	7070
	.long	7083
	.long	7084
	.long	7087
	.long	7088
	.long	7105
	.long	7116
	.long	7137
	.long	7140
	.long	7147
	.long	7170
	.long	7287
	.long	7294
	.long	7353
	.long	7426
	.long	7431
	.long	7432
	.long	7435
	.long	7436
	.long	7447
	.long	7448
	.long	7497
	.long	7498
	.long	7501
	.long	7502
	.long	7549
	.long	7552
	.long	7563
	.long	7564
	.long	7567
	.long	7568
	.long	7583
	.long	7584
	.long	7605
	.long	7608
	.long	7617
	.long	7680
	.long	7825
	.long	7826
	.long	7899
	.long	7906
	.long	7985
	.long	7986
	.long	8059
	.long	8060
	.long	8091
	.long	8092
	.long	8119
	.long	8192
	.long	8589
	.long	8590
	.long	8593
	.long	8602
	.long	8605
	.long	8608
	.long	9363
	.long	9364
	.long	9373
	.long	9376
	.long	9391
	.long	9392
	.long	9395
	.long	9396
	.long	9405
	.long	9408
	.long	9491
	.long	9492
	.long	9501
	.long	9504
	.long	9571
	.long	9572
	.long	9581
	.long	9584
	.long	9599
	.long	9600
	.long	9603
	.long	9604
	.long	9613
	.long	9616
	.long	9647
	.long	9648
	.long	9763
	.long	9764
	.long	9773
	.long	9776
	.long	9911
	.long	9914
	.long	9979
	.long	9984
	.long	10037
	.long	10048
	.long	10221
	.long	10224
	.long	10237
	.long	10240
	.long	11521
	.long	11522
	.long	11579
	.long	11584
	.long	11763
	.long	11776
	.long	11821
	.long	11838
	.long	11887
	.long	11904
	.long	11945
	.long	11968
	.long	11995
	.long	11996
	.long	12003
	.long	12004
	.long	12009
	.long	12032
	.long	12221
	.long	12224
	.long	12245
	.long	12256
	.long	12277
	.long	12288
	.long	12317
	.long	12318
	.long	12341
	.long	12352
	.long	12531
	.long	12544
	.long	12631
	.long	12640
	.long	12781
	.long	12800
	.long	12863
	.long	12864
	.long	12889
	.long	12896
	.long	12921
	.long	12928
	.long	12931
	.long	12936
	.long	13021
	.long	13024
	.long	13035
	.long	13056
	.long	13145
	.long	13152
	.long	13205
	.long	13216
	.long	13239
	.long	13244
	.long	13369
	.long	13372
	.long	13503
	.long	13504
	.long	13563
	.long	13566
	.long	13589
	.long	13600
	.long	13621
	.long	13632
	.long	13661
	.long	13664
	.long	13727
	.long	13824
	.long	13979
	.long	13980
	.long	14313
	.long	14328
	.long	14449
	.long	14454
	.long	14485
	.long	14490
	.long	14615
	.long	14624
	.long	14711
	.long	14714
	.long	14737
	.long	14752
	.long	14839
	.long	14848
	.long	15917
	.long	15920
	.long	15933
	.long	15936
	.long	16013
	.long	16016
	.long	16029
	.long	16032
	.long	16049
	.long	16050
	.long	16053
	.long	16054
	.long	16057
	.long	16058
	.long	16061
	.long	16062
	.long	16125
	.long	16128
	.long	16235
	.long	16236
	.long	16267
	.long	16268
	.long	16297
	.long	16300
	.long	16313
	.long	16314
	.long	16353
	.long	16356
	.long	16363
	.long	16364
	.long	16383
	.long	16416
	.long	16465
	.long	16480
	.long	16575
	.long	16608
	.long	16613
	.long	16616
	.long	16671
	.long	16672
	.long	16699
	.long	16704
	.long	16771
	.long	16800
	.long	16867
	.long	16896
	.long	17177
	.long	17184
	.long	18517
	.long	18560
	.long	18583
	.long	18624
	.long	22249
	.long	22252
	.long	22317
	.long	22318
	.long	23017
	.long	23026
	.long	23117
	.long	23118
	.long	23121
	.long	23130
	.long	23133
	.long	23136
	.long	23249
	.long	23262
	.long	23267
	.long	23294
	.long	23343
	.long	23360
	.long	23375
	.long	23376
	.long	23391
	.long	23392
	.long	23407
	.long	23408
	.long	23423
	.long	23424
	.long	23439
	.long	23440
	.long	23455
	.long	23456
	.long	23471
	.long	23472
	.long	23487
	.long	23488
	.long	23741
	.long	23808
	.long	23861
	.long	23862
	.long	24041
	.long	24064
	.long	24493
	.long	24544
	.long	24577
	.long	24578
	.long	24705
	.long	24706
	.long	24879
	.long	24882
	.long	25089
	.long	25098
	.long	25185
	.long	25186
	.long	25375
	.long	25376
	.long	25549
	.long	25566
	.long	25663
	.long	25664
	.long	84251
	.long	84256
	.long	84367
	.long	84384
	.long	85081
	.long	85120
	.long	85489
	.long	85504
	.long	85917
	.long	85920
	.long	85925
	.long	85926
	.long	85929
	.long	85930
	.long	85947
	.long	85988
	.long	86107
	.long	86112
	.long	86133
	.long	86144
	.long	86257
	.long	86272
	.long	86413
	.long	86428
	.long	86453
	.long	86464
	.long	86697
	.long	86718
	.long	86779
	.long	86784
	.long	86941
	.long	86942
	.long	86965
	.long	86972
	.long	87039
	.long	87040
	.long	87151
	.long	87168
	.long	87197
	.long	87200
	.long	87221
	.long	87224
	.long	87431
	.long	87478
	.long	87535
	.long	87554
	.long	87567
	.long	87570
	.long	87583
	.long	87586
	.long	87599
	.long	87616
	.long	87631
	.long	87632
	.long	87647
	.long	87648
	.long	87769
	.long	87776
	.long	88029
	.long	88032
	.long	88053
	.long	88064
	.long	110409
	.long	110432
	.long	110479
	.long	110486
	.long	110585
	.long	127488
	.long	128221
	.long	128224
	.long	128437
	.long	128512
	.long	128527
	.long	128550
	.long	128561
	.long	128570
	.long	128623
	.long	128624
	.long	128635
	.long	128636
	.long	128639
	.long	128640
	.long	128645
	.long	128646
	.long	128651
	.long	128652
	.long	128903
	.long	128934
	.long	129825
	.long	129828
	.long	129937
	.long	129950
	.long	129953
	.long	130016
	.long	130101
	.long	130112
	.long	130215
	.long	130216
	.long	130255
	.long	130256
	.long	130265
	.long	130272
	.long	130283
	.long	130284
	.long	130555
	.long	130562
	.long	130943
	.long	130948
	.long	130961
	.long	130964
	.long	130977
	.long	130980
	.long	130993
	.long	130996
	.long	131003
	.long	131008
	.long	131023
	.long	131024
	.long	131039
	.long	131064
	.long	131069
	.long	131072
	.long	131097
	.long	131098
	.long	131151
	.long	131152
	.long	131191
	.long	131192
	.long	131197
	.long	131198
	.long	131229
	.long	131232
	.long	131261
	.long	131328
	.long	131575
	.long	131584
	.long	131591
	.long	131598
	.long	131689
	.long	131694
	.long	131871
	.long	131872
	.long	131899
	.long	131904
	.long	131907
	.long	132000
	.long	132093
	.long	132352
	.long	132411
	.long	132416
	.long	132515
	.long	132544
	.long	132601
	.long	132608
	.long	132681
	.long	132698
	.long	132759
	.long	132768
	.long	132855
	.long	132864
	.long	132925
	.long	132926
	.long	133001
	.long	133008
	.long	133037
	.long	133120
	.long	133437
	.long	133440
	.long	133461
	.long	133472
	.long	133545
	.long	133552
	.long	133625
	.long	133632
	.long	133713
	.long	133728
	.long	133833
	.long	133854
	.long	133879
	.long	133880
	.long	133911
	.long	133912
	.long	133927
	.long	133928
	.long	133933
	.long	133934
	.long	133957
	.long	133958
	.long	133989
	.long	133990
	.long	134005
	.long	134006
	.long	134011
	.long	134016
	.long	134121
	.long	134144
	.long	134767
	.long	134784
	.long	134829
	.long	134848
	.long	134865
	.long	134912
	.long	134925
	.long	134926
	.long	135011
	.long	135012
	.long	135031
	.long	135168
	.long	135181
	.long	135184
	.long	135187
	.long	135188
	.long	135277
	.long	135278
	.long	135283
	.long	135288
	.long	135291
	.long	135294
	.long	135341
	.long	135342
	.long	135487
	.long	135502
	.long	135521
	.long	135616
	.long	135655
	.long	135656
	.long	135661
	.long	135670
	.long	135737
	.long	135742
	.long	135797
	.long	135806
	.long	135809
	.long	135936
	.long	136049
	.long	136056
	.long	136097
	.long	136100
	.long	136201
	.long	136202
	.long	136207
	.long	136216
	.long	136233
	.long	136234
	.long	136241
	.long	136242
	.long	136301
	.long	136304
	.long	136311
	.long	136318
	.long	136339
	.long	136352
	.long	136371
	.long	136384
	.long	136513
	.long	136576
	.long	136655
	.long	136662
	.long	136687
	.long	136704
	.long	136813
	.long	136818
	.long	136877
	.long	136880
	.long	136935
	.long	136944
	.long	136997
	.long	137010
	.long	137019
	.long	137042
	.long	137057
	.long	137216
	.long	137363
	.long	137472
	.long	137575
	.long	137600
	.long	137703
	.long	137716
	.long	137809
	.long	137824
	.long	137845
	.long	137856
	.long	137933
	.long	137938
	.long	137997
	.long	138012
	.long	138017
	.long	138432
	.long	138495
	.long	138496
	.long	138581
	.long	138582
	.long	138589
	.long	138592
	.long	138597
	.long	138628
	.long	138635
	.long	138744
	.long	138833
	.long	138848
	.long	138933
	.long	138976
	.long	139029
	.long	139104
	.long	139161
	.long	139200
	.long	139247
	.long	139264
	.long	139421
	.long	139428
	.long	139501
	.long	139518
	.long	139643
	.long	139644
	.long	139655
	.long	139680
	.long	139731
	.long	139744
	.long	139765
	.long	139776
	.long	139883
	.long	139884
	.long	139921
	.long	139936
	.long	140015
	.long	140032
	.long	140225
	.long	140226
	.long	140267
	.long	140288
	.long	140325
	.long	140326
	.long	140421
	.long	140544
	.long	140559
	.long	140560
	.long	140563
	.long	140564
	.long	140573
	.long	140574
	.long	140605
	.long	140606
	.long	140629
	.long	140640
	.long	140759
	.long	140768
	.long	140789
	.long	140800
	.long	140809
	.long	140810
	.long	140827
	.long	140830
	.long	140835
	.long	140838
	.long	140883
	.long	140884
	.long	140899
	.long	140900
	.long	140905
	.long	140906
	.long	140917
	.long	140918
	.long	140939
	.long	140942
	.long	140947
	.long	140950
	.long	140957
	.long	140960
	.long	140963
	.long	140974
	.long	140977
	.long	140986
	.long	141001
	.long	141004
	.long	141019
	.long	141024
	.long	141035
	.long	141056
	.long	141077
	.long	141078
	.long	141081
	.long	141084
	.long	141087
	.long	141088
	.long	141165
	.long	141166
	.long	141187
	.long	141188
	.long	141191
	.long	141194
	.long	141197
	.long	141198
	.long	141207
	.long	141208
	.long	141229
	.long	141230
	.long	141235
	.long	141250
	.long	141255
	.long	141312
	.long	141497
	.long	141498
	.long	141509
	.long	141568
	.long	141713
	.long	141728
	.long	141749
	.long	142080
	.long	142189
	.long	142192
	.long	142269
	.long	142336
	.long	142475
	.long	142496
	.long	142517
	.long	142528
	.long	142555
	.long	142592
	.long	142709
	.long	142720
	.long	142741
	.long	142752
	.long	142793
	.long	142848
	.long	142903
	.long	142906
	.long	142937
	.long	142944
	.long	142991
	.long	143360
	.long	143481
	.long	143680
	.long	143847
	.long	143870
	.long	143887
	.long	143890
	.long	143893
	.long	143896
	.long	143913
	.long	143914
	.long	143919
	.long	143920
	.long	143981
	.long	143982
	.long	143987
	.long	143990
	.long	144015
	.long	144032
	.long	144053
	.long	144192
	.long	144209
	.long	144212
	.long	144305
	.long	144308
	.long	144331
	.long	144384
	.long	144529
	.long	144544
	.long	144711
	.long	144736
	.long	144883
	.long	144896
	.long	144917
	.long	145280
	.long	145349
	.long	145376
	.long	145397
	.long	145408
	.long	145427
	.long	145428
	.long	145519
	.long	145520
	.long	145549
	.long	145568
	.long	145627
	.long	145632
	.long	145697
	.long	145700
	.long	145745
	.long	145746
	.long	145775
	.long	145920
	.long	145935
	.long	145936
	.long	145941
	.long	145942
	.long	146031
	.long	146036
	.long	146039
	.long	146040
	.long	146045
	.long	146046
	.long	146065
	.long	146080
	.long	146101
	.long	146112
	.long	146125
	.long	146126
	.long	146131
	.long	146132
	.long	146207
	.long	146208
	.long	146213
	.long	146214
	.long	146227
	.long	146240
	.long	146261
	.long	146880
	.long	146931
	.long	146944
	.long	146979
	.long	146980
	.long	147063
	.long	147068
	.long	147127
	.long	147296
	.long	147299
	.long	147328
	.long	147429
	.long	147454
	.long	149301
	.long	149504
	.long	149727
	.long	149728
	.long	149739
	.long	149760
	.long	150153
	.long	155424
	.long	155623
	.long	155648
	.long	157793
	.long	157824
	.long	157869
	.long	157888
	.long	165879
	.long	165888
	.long	167055
	.long	180736
	.long	180853
	.long	184320
	.long	185459
	.long	185472
	.long	185535
	.long	185536
	.long	185557
	.long	185564
	.long	185727
	.long	185728
	.long	185749
	.long	185760
	.long	185821
	.long	185824
	.long	185837
	.long	185856
	.long	185997
	.long	186016
	.long	186037
	.long	186038
	.long	186053
	.long	186054
	.long	186097
	.long	186106
	.long	186145
	.long	187008
	.long	187125
	.long	187520
	.long	187703
	.long	187904
	.long	188055
	.long	188062
	.long	188177
	.long	188190
	.long	188225
	.long	188352
	.long	188363
	.long	188384
	.long	188389
	.long	188416
	.long	200689
	.long	200704
	.long	203181
	.long	203262
	.long	203283
	.long	221152
	.long	221161
	.long	221162
	.long	221177
	.long	221178
	.long	221183
	.long	221184
	.long	221767
	.long	221796
	.long	221799
	.long	221856
	.long	221863
	.long	221866
	.long	221869
	.long	221896
	.long	221905
	.long	221920
	.long	222713
	.long	227328
	.long	227543
	.long	227552
	.long	227579
	.long	227584
	.long	227603
	.long	227616
	.long	227637
	.long	227640
	.long	227649
	.long	235520
	.long	236021
	.long	236032
	.long	236905
	.long	237056
	.long	237149
	.long	237152
	.long	237199
	.long	237216
	.long	237449
	.long	237568
	.long	238061
	.long	238080
	.long	238159
	.long	238162
	.long	238311
	.long	238326
	.long	238551
	.long	238592
	.long	238733
	.long	238976
	.long	239017
	.long	239040
	.long	239081
	.long	239104
	.long	239279
	.long	239296
	.long	239347
	.long	239616
	.long	239787
	.long	239788
	.long	239931
	.long	239932
	.long	239937
	.long	239940
	.long	239943
	.long	239946
	.long	239951
	.long	239954
	.long	239963
	.long	239964
	.long	239989
	.long	239990
	.long	239993
	.long	239994
	.long	240009
	.long	240010
	.long	240141
	.long	240142
	.long	240151
	.long	240154
	.long	240171
	.long	240172
	.long	240187
	.long	240188
	.long	240245
	.long	240246
	.long	240255
	.long	240256
	.long	240267
	.long	240268
	.long	240271
	.long	240276
	.long	240291
	.long	240292
	.long	240973
	.long	240976
	.long	241561
	.long	241564
	.long	242969
	.long	242998
	.long	243009
	.long	243010
	.long	243041
	.long	245248
	.long	245311
	.long	245322
	.long	245335
	.long	245760
	.long	245775
	.long	245776
	.long	245811
	.long	245814
	.long	245829
	.long	245830
	.long	245835
	.long	245836
	.long	245847
	.long	245856
	.long	245981
	.long	246046
	.long	246049
	.long	246272
	.long	246363
	.long	246368
	.long	246397
	.long	246400
	.long	246421
	.long	246428
	.long	246433
	.long	247072
	.long	247135
	.long	247168
	.long	247285
	.long	247294
	.long	247297
	.long	248224
	.long	248309
	.long	248736
	.long	248823
	.long	248830
	.long	248833
	.long	249792
	.long	249807
	.long	249808
	.long	249817
	.long	249818
	.long	249823
	.long	249824
	.long	249855
	.long	249856
	.long	250251
	.long	250254
	.long	250287
	.long	250368
	.long	250521
	.long	250528
	.long	250549
	.long	250556
	.long	250561
	.long	252130
	.long	252267
	.long	252418
	.long	252541
	.long	252928
	.long	252937
	.long	252938
	.long	252993
	.long	252994
	.long	252999
	.long	253000
	.long	253003
	.long	253006
	.long	253009
	.long	253010
	.long	253031
	.long	253032
	.long	253041
	.long	253042
	.long	253045
	.long	253046
	.long	253049
	.long	253060
	.long	253063
	.long	253070
	.long	253073
	.long	253074
	.long	253077
	.long	253078
	.long	253081
	.long	253082
	.long	253089
	.long	253090
	.long	253095
	.long	253096
	.long	253099
	.long	253102
	.long	253105
	.long	253106
	.long	253109
	.long	253110
	.long	253113
	.long	253114
	.long	253117
	.long	253118
	.long	253121
	.long	253122
	.long	253127
	.long	253128
	.long	253131
	.long	253134
	.long	253143
	.long	253144
	.long	253159
	.long	253160
	.long	253169
	.long	253170
	.long	253179
	.long	253180
	.long	253183
	.long	253184
	.long	253205
	.long	253206
	.long	253241
	.long	253250
	.long	253257
	.long	253258
	.long	253269
	.long	253270
	.long	253305
	.long	253408
	.long	253413
	.long	253952
	.long	254041
	.long	254048
	.long	254249
	.long	254272
	.long	254303
	.long	254306
	.long	254337
	.long	254338
	.long	254369
	.long	254370
	.long	254445
	.long	254464
	.long	254813
	.long	254924
	.long	254983
	.long	255008
	.long	255097
	.long	255104
	.long	255123
	.long	255136
	.long	255141
	.long	255168
	.long	255181
	.long	255488
	.long	257457
	.long	257464
	.long	257499
	.long	257504
	.long	257531
	.long	257536
	.long	257775
	.long	257782
	.long	257973
	.long	257984
	.long	258009
	.long	258016
	.long	258019
	.long	258048
	.long	258073
	.long	258080
	.long	258193
	.long	258208
	.long	258229
	.long	258240
	.long	258321
	.long	258336
	.long	258397
	.long	258400
	.long	258425
	.long	258432
	.long	258437
	.long	258560
	.long	259241
	.long	259264
	.long	259293
	.long	259296
	.long	259323
	.long	259328
	.long	259349
	.long	259358
	.long	259471
	.long	259484
	.long	259515
	.long	259518
	.long	259541
	.long	259552
	.long	259571
	.long	259584
	.long	259879
	.long	259880
	.long	260085
	.long	262144
	.long	347585
	.long	347648
	.long	355957
	.long	355968
	.long	356413
	.long	356416
	.long	367941
	.long	367968
	.long	382915
	.long	382944
	.long	384189
	.long	389120
	.long	390205
	.long	393216
	.long	403095
	.long	403104
	.long	411489
	.long	1835520
	.long	1836001
	.weak	_ZNSt9__unicode9__v16_0_011__gcb_edgesE
	.section	.rodata._ZNSt9__unicode9__v16_0_011__gcb_edgesE,"aG",@progbits,_ZNSt9__unicode9__v16_0_011__gcb_edgesE,comdat
	.align 32
	.type	_ZNSt9__unicode9__v16_0_011__gcb_edgesE, @gnu_unique_object
	.size	_ZNSt9__unicode9__v16_0_011__gcb_edgesE, 6868
_ZNSt9__unicode9__v16_0_011__gcb_edgesE:
	.long	1
	.long	162
	.long	177
	.long	211
	.long	225
	.long	512
	.long	2033
	.long	2560
	.long	2769
	.long	2784
	.long	12292
	.long	14080
	.long	18484
	.long	18592
	.long	22804
	.long	23520
	.long	23540
	.long	23552
	.long	23572
	.long	23600
	.long	23620
	.long	23648
	.long	23668
	.long	23680
	.long	24581
	.long	24672
	.long	24836
	.long	25008
	.long	25025
	.long	25040
	.long	25780
	.long	26112
	.long	26372
	.long	26384
	.long	28004
	.long	28117
	.long	28128
	.long	28148
	.long	28240
	.long	28276
	.long	28304
	.long	28324
	.long	28384
	.long	28917
	.long	28928
	.long	28948
	.long	28960
	.long	29444
	.long	29872
	.long	31332
	.long	31504
	.long	32436
	.long	32576
	.long	32724
	.long	32736
	.long	33124
	.long	33184
	.long	33204
	.long	33344
	.long	33364
	.long	33408
	.long	33428
	.long	33504
	.long	34196
	.long	34240
	.long	35077
	.long	35104
	.long	35188
	.long	35328
	.long	36004
	.long	36389
	.long	36404
	.long	36918
	.long	36928
	.long	37796
	.long	37814
	.long	37828
	.long	37840
	.long	37862
	.long	37908
	.long	38038
	.long	38100
	.long	38118
	.long	38144
	.long	38164
	.long	38272
	.long	38436
	.long	38464
	.long	38932
	.long	38950
	.long	38976
	.long	39876
	.long	39888
	.long	39908
	.long	39926
	.long	39956
	.long	40016
	.long	40054
	.long	40080
	.long	40118
	.long	40148
	.long	40160
	.long	40308
	.long	40320
	.long	40484
	.long	40512
	.long	40932
	.long	40944
	.long	40980
	.long	41014
	.long	41024
	.long	41924
	.long	41936
	.long	41958
	.long	42004
	.long	42032
	.long	42100
	.long	42128
	.long	42164
	.long	42208
	.long	42260
	.long	42272
	.long	42756
	.long	42784
	.long	42836
	.long	42848
	.long	43028
	.long	43062
	.long	43072
	.long	43972
	.long	43984
	.long	44006
	.long	44052
	.long	44128
	.long	44148
	.long	44182
	.long	44192
	.long	44214
	.long	44244
	.long	44256
	.long	44580
	.long	44608
	.long	44964
	.long	45056
	.long	45076
	.long	45094
	.long	45120
	.long	46020
	.long	46032
	.long	46052
	.long	46086
	.long	46100
	.long	46160
	.long	46198
	.long	46224
	.long	46262
	.long	46292
	.long	46304
	.long	46420
	.long	46464
	.long	46628
	.long	46656
	.long	47140
	.long	47152
	.long	48100
	.long	48118
	.long	48132
	.long	48150
	.long	48176
	.long	48230
	.long	48272
	.long	48294
	.long	48340
	.long	48352
	.long	48500
	.long	48512
	.long	49156
	.long	49174
	.long	49220
	.long	49232
	.long	50116
	.long	50128
	.long	50148
	.long	50198
	.long	50256
	.long	50276
	.long	50320
	.long	50340
	.long	50400
	.long	50516
	.long	50544
	.long	50724
	.long	50752
	.long	51220
	.long	51238
	.long	51264
	.long	52164
	.long	52176
	.long	52198
	.long	52212
	.long	52246
	.long	52260
	.long	52278
	.long	52304
	.long	52324
	.long	52368
	.long	52388
	.long	52448
	.long	52564
	.long	52592
	.long	52772
	.long	52800
	.long	53046
	.long	53056
	.long	53252
	.long	53286
	.long	53312
	.long	54196
	.long	54224
	.long	54244
	.long	54262
	.long	54292
	.long	54352
	.long	54374
	.long	54416
	.long	54438
	.long	54484
	.long	54501
	.long	54512
	.long	54644
	.long	54656
	.long	54820
	.long	54848
	.long	55316
	.long	55334
	.long	55360
	.long	56484
	.long	56496
	.long	56564
	.long	56582
	.long	56612
	.long	56656
	.long	56676
	.long	56688
	.long	56710
	.long	56820
	.long	56832
	.long	57126
	.long	57152
	.long	58132
	.long	58144
	.long	58166
	.long	58180
	.long	58288
	.long	58484
	.long	58608
	.long	60180
	.long	60192
	.long	60214
	.long	60228
	.long	60368
	.long	60548
	.long	60656
	.long	61828
	.long	61856
	.long	62292
	.long	62304
	.long	62324
	.long	62336
	.long	62356
	.long	62368
	.long	62438
	.long	62464
	.long	63252
	.long	63478
	.long	63492
	.long	63568
	.long	63588
	.long	63616
	.long	63700
	.long	63872
	.long	63892
	.long	64464
	.long	64612
	.long	64624
	.long	66260
	.long	66326
	.long	66340
	.long	66432
	.long	66452
	.long	66486
	.long	66516
	.long	66544
	.long	66918
	.long	66948
	.long	66976
	.long	67044
	.long	67088
	.long	67348
	.long	67408
	.long	67620
	.long	67632
	.long	67654
	.long	67668
	.long	67696
	.long	67796
	.long	67808
	.long	68052
	.long	68064
	.long	69639
	.long	71176
	.long	72329
	.long	73728
	.long	79316
	.long	79360
	.long	94500
	.long	94560
	.long	95012
	.long	95056
	.long	95524
	.long	95552
	.long	96036
	.long	96064
	.long	97092
	.long	97126
	.long	97140
	.long	97254
	.long	97380
	.long	97398
	.long	97428
	.long	97600
	.long	97748
	.long	97760
	.long	98484
	.long	98529
	.long	98548
	.long	98560
	.long	100436
	.long	100464
	.long	101012
	.long	101024
	.long	102916
	.long	102966
	.long	103028
	.long	103062
	.long	103104
	.long	103174
	.long	103204
	.long	103222
	.long	103316
	.long	103360
	.long	106868
	.long	106902
	.long	106932
	.long	106944
	.long	107862
	.long	107876
	.long	107894
	.long	107908
	.long	108016
	.long	108036
	.long	108048
	.long	108068
	.long	108080
	.long	108116
	.long	108246
	.long	108340
	.long	108496
	.long	108532
	.long	108544
	.long	109316
	.long	109808
	.long	110596
	.long	110662
	.long	110672
	.long	111428
	.long	111590
	.long	111652
	.long	111696
	.long	112308
	.long	112448
	.long	112644
	.long	112678
	.long	112688
	.long	113174
	.long	113188
	.long	113254
	.long	113284
	.long	113376
	.long	114276
	.long	114294
	.long	114308
	.long	114342
	.long	114388
	.long	114406
	.long	114420
	.long	114496
	.long	115270
	.long	115396
	.long	115526
	.long	115556
	.long	115584
	.long	118020
	.long	118064
	.long	118084
	.long	118294
	.long	118308
	.long	118416
	.long	118484
	.long	118496
	.long	118596
	.long	118608
	.long	118646
	.long	118660
	.long	118688
	.long	121860
	.long	122880
	.long	131249
	.long	131268
	.long	131290
	.long	131297
	.long	131328
	.long	131713
	.long	131824
	.long	132609
	.long	132864
	.long	134404
	.long	134928
	.long	184052
	.long	184096
	.long	186356
	.long	186368
	.long	187908
	.long	188416
	.long	197284
	.long	197376
	.long	199060
	.long	199088
	.long	681716
	.long	681776
	.long	681796
	.long	681952
	.long	682468
	.long	682496
	.long	683780
	.long	683808
	.long	688164
	.long	688176
	.long	688228
	.long	688240
	.long	688308
	.long	688320
	.long	688694
	.long	688724
	.long	688758
	.long	688768
	.long	688836
	.long	688848
	.long	690182
	.long	690208
	.long	691014
	.long	691268
	.long	691296
	.long	691716
	.long	692000
	.long	692212
	.long	692224
	.long	692836
	.long	692960
	.long	693364
	.long	693542
	.long	693556
	.long	693568
	.long	693767
	.long	694224
	.long	694276
	.long	694326
	.long	694336
	.long	695092
	.long	695110
	.long	695140
	.long	695206
	.long	695236
	.long	695270
	.long	695300
	.long	695312
	.long	695892
	.long	695904
	.long	696980
	.long	697078
	.long	697108
	.long	697142
	.long	697172
	.long	697200
	.long	697396
	.long	697408
	.long	697540
	.long	697558
	.long	697568
	.long	698308
	.long	698320
	.long	699140
	.long	699152
	.long	699172
	.long	699216
	.long	699252
	.long	699280
	.long	699364
	.long	699392
	.long	699412
	.long	699424
	.long	700086
	.long	700100
	.long	700134
	.long	700160
	.long	700246
	.long	700260
	.long	700272
	.long	704054
	.long	704084
	.long	704102
	.long	704132
	.long	704150
	.long	704176
	.long	704198
	.long	704212
	.long	704224
	.long	704523
	.long	704540
	.long	704971
	.long	704988
	.long	705419
	.long	705436
	.long	705867
	.long	705884
	.long	706315
	.long	706332
	.long	706763
	.long	706780
	.long	707211
	.long	707228
	.long	707659
	.long	707676
	.long	708107
	.long	708124
	.long	708555
	.long	708572
	.long	709003
	.long	709020
	.long	709451
	.long	709468
	.long	709899
	.long	709916
	.long	710347
	.long	710364
	.long	710795
	.long	710812
	.long	711243
	.long	711260
	.long	711691
	.long	711708
	.long	712139
	.long	712156
	.long	712587
	.long	712604
	.long	713035
	.long	713052
	.long	713483
	.long	713500
	.long	713931
	.long	713948
	.long	714379
	.long	714396
	.long	714827
	.long	714844
	.long	715275
	.long	715292
	.long	715723
	.long	715740
	.long	716171
	.long	716188
	.long	716619
	.long	716636
	.long	717067
	.long	717084
	.long	717515
	.long	717532
	.long	717963
	.long	717980
	.long	718411
	.long	718428
	.long	718859
	.long	718876
	.long	719307
	.long	719324
	.long	719755
	.long	719772
	.long	720203
	.long	720220
	.long	720651
	.long	720668
	.long	721099
	.long	721116
	.long	721547
	.long	721564
	.long	721995
	.long	722012
	.long	722443
	.long	722460
	.long	722891
	.long	722908
	.long	723339
	.long	723356
	.long	723787
	.long	723804
	.long	724235
	.long	724252
	.long	724683
	.long	724700
	.long	725131
	.long	725148
	.long	725579
	.long	725596
	.long	726027
	.long	726044
	.long	726475
	.long	726492
	.long	726923
	.long	726940
	.long	727371
	.long	727388
	.long	727819
	.long	727836
	.long	728267
	.long	728284
	.long	728715
	.long	728732
	.long	729163
	.long	729180
	.long	729611
	.long	729628
	.long	730059
	.long	730076
	.long	730507
	.long	730524
	.long	730955
	.long	730972
	.long	731403
	.long	731420
	.long	731851
	.long	731868
	.long	732299
	.long	732316
	.long	732747
	.long	732764
	.long	733195
	.long	733212
	.long	733643
	.long	733660
	.long	734091
	.long	734108
	.long	734539
	.long	734556
	.long	734987
	.long	735004
	.long	735435
	.long	735452
	.long	735883
	.long	735900
	.long	736331
	.long	736348
	.long	736779
	.long	736796
	.long	737227
	.long	737244
	.long	737675
	.long	737692
	.long	738123
	.long	738140
	.long	738571
	.long	738588
	.long	739019
	.long	739036
	.long	739467
	.long	739484
	.long	739915
	.long	739932
	.long	740363
	.long	740380
	.long	740811
	.long	740828
	.long	741259
	.long	741276
	.long	741707
	.long	741724
	.long	742155
	.long	742172
	.long	742603
	.long	742620
	.long	743051
	.long	743068
	.long	743499
	.long	743516
	.long	743947
	.long	743964
	.long	744395
	.long	744412
	.long	744843
	.long	744860
	.long	745291
	.long	745308
	.long	745739
	.long	745756
	.long	746187
	.long	746204
	.long	746635
	.long	746652
	.long	747083
	.long	747100
	.long	747531
	.long	747548
	.long	747979
	.long	747996
	.long	748427
	.long	748444
	.long	748875
	.long	748892
	.long	749323
	.long	749340
	.long	749771
	.long	749788
	.long	750219
	.long	750236
	.long	750667
	.long	750684
	.long	751115
	.long	751132
	.long	751563
	.long	751580
	.long	752011
	.long	752028
	.long	752459
	.long	752476
	.long	752907
	.long	752924
	.long	753355
	.long	753372
	.long	753803
	.long	753820
	.long	754251
	.long	754268
	.long	754699
	.long	754716
	.long	755147
	.long	755164
	.long	755595
	.long	755612
	.long	756043
	.long	756060
	.long	756491
	.long	756508
	.long	756939
	.long	756956
	.long	757387
	.long	757404
	.long	757835
	.long	757852
	.long	758283
	.long	758300
	.long	758731
	.long	758748
	.long	759179
	.long	759196
	.long	759627
	.long	759644
	.long	760075
	.long	760092
	.long	760523
	.long	760540
	.long	760971
	.long	760988
	.long	761419
	.long	761436
	.long	761867
	.long	761884
	.long	762315
	.long	762332
	.long	762763
	.long	762780
	.long	763211
	.long	763228
	.long	763659
	.long	763676
	.long	764107
	.long	764124
	.long	764555
	.long	764572
	.long	765003
	.long	765020
	.long	765451
	.long	765468
	.long	765899
	.long	765916
	.long	766347
	.long	766364
	.long	766795
	.long	766812
	.long	767243
	.long	767260
	.long	767691
	.long	767708
	.long	768139
	.long	768156
	.long	768587
	.long	768604
	.long	769035
	.long	769052
	.long	769483
	.long	769500
	.long	769931
	.long	769948
	.long	770379
	.long	770396
	.long	770827
	.long	770844
	.long	771275
	.long	771292
	.long	771723
	.long	771740
	.long	772171
	.long	772188
	.long	772619
	.long	772636
	.long	773067
	.long	773084
	.long	773515
	.long	773532
	.long	773963
	.long	773980
	.long	774411
	.long	774428
	.long	774859
	.long	774876
	.long	775307
	.long	775324
	.long	775755
	.long	775772
	.long	776203
	.long	776220
	.long	776651
	.long	776668
	.long	777099
	.long	777116
	.long	777547
	.long	777564
	.long	777995
	.long	778012
	.long	778443
	.long	778460
	.long	778891
	.long	778908
	.long	779339
	.long	779356
	.long	779787
	.long	779804
	.long	780235
	.long	780252
	.long	780683
	.long	780700
	.long	781131
	.long	781148
	.long	781579
	.long	781596
	.long	782027
	.long	782044
	.long	782475
	.long	782492
	.long	782923
	.long	782940
	.long	783371
	.long	783388
	.long	783819
	.long	783836
	.long	784267
	.long	784284
	.long	784715
	.long	784732
	.long	785163
	.long	785180
	.long	785611
	.long	785628
	.long	786059
	.long	786076
	.long	786507
	.long	786524
	.long	786955
	.long	786972
	.long	787403
	.long	787420
	.long	787851
	.long	787868
	.long	788299
	.long	788316
	.long	788747
	.long	788764
	.long	789195
	.long	789212
	.long	789643
	.long	789660
	.long	790091
	.long	790108
	.long	790539
	.long	790556
	.long	790987
	.long	791004
	.long	791435
	.long	791452
	.long	791883
	.long	791900
	.long	792331
	.long	792348
	.long	792779
	.long	792796
	.long	793227
	.long	793244
	.long	793675
	.long	793692
	.long	794123
	.long	794140
	.long	794571
	.long	794588
	.long	795019
	.long	795036
	.long	795467
	.long	795484
	.long	795915
	.long	795932
	.long	796363
	.long	796380
	.long	796811
	.long	796828
	.long	797259
	.long	797276
	.long	797707
	.long	797724
	.long	798155
	.long	798172
	.long	798603
	.long	798620
	.long	799051
	.long	799068
	.long	799499
	.long	799516
	.long	799947
	.long	799964
	.long	800395
	.long	800412
	.long	800843
	.long	800860
	.long	801291
	.long	801308
	.long	801739
	.long	801756
	.long	802187
	.long	802204
	.long	802635
	.long	802652
	.long	803083
	.long	803100
	.long	803531
	.long	803548
	.long	803979
	.long	803996
	.long	804427
	.long	804444
	.long	804875
	.long	804892
	.long	805323
	.long	805340
	.long	805771
	.long	805788
	.long	806219
	.long	806236
	.long	806667
	.long	806684
	.long	807115
	.long	807132
	.long	807563
	.long	807580
	.long	808011
	.long	808028
	.long	808459
	.long	808476
	.long	808907
	.long	808924
	.long	809355
	.long	809372
	.long	809803
	.long	809820
	.long	810251
	.long	810268
	.long	810699
	.long	810716
	.long	811147
	.long	811164
	.long	811595
	.long	811612
	.long	812043
	.long	812060
	.long	812491
	.long	812508
	.long	812939
	.long	812956
	.long	813387
	.long	813404
	.long	813835
	.long	813852
	.long	814283
	.long	814300
	.long	814731
	.long	814748
	.long	815179
	.long	815196
	.long	815627
	.long	815644
	.long	816075
	.long	816092
	.long	816523
	.long	816540
	.long	816971
	.long	816988
	.long	817419
	.long	817436
	.long	817867
	.long	817884
	.long	818315
	.long	818332
	.long	818763
	.long	818780
	.long	819211
	.long	819228
	.long	819659
	.long	819676
	.long	820107
	.long	820124
	.long	820555
	.long	820572
	.long	821003
	.long	821020
	.long	821451
	.long	821468
	.long	821899
	.long	821916
	.long	822347
	.long	822364
	.long	822795
	.long	822812
	.long	823243
	.long	823260
	.long	823691
	.long	823708
	.long	824139
	.long	824156
	.long	824587
	.long	824604
	.long	825035
	.long	825052
	.long	825483
	.long	825500
	.long	825931
	.long	825948
	.long	826379
	.long	826396
	.long	826827
	.long	826844
	.long	827275
	.long	827292
	.long	827723
	.long	827740
	.long	828171
	.long	828188
	.long	828619
	.long	828636
	.long	829067
	.long	829084
	.long	829515
	.long	829532
	.long	829963
	.long	829980
	.long	830411
	.long	830428
	.long	830859
	.long	830876
	.long	831307
	.long	831324
	.long	831755
	.long	831772
	.long	832203
	.long	832220
	.long	832651
	.long	832668
	.long	833099
	.long	833116
	.long	833547
	.long	833564
	.long	833995
	.long	834012
	.long	834443
	.long	834460
	.long	834891
	.long	834908
	.long	835339
	.long	835356
	.long	835787
	.long	835804
	.long	836235
	.long	836252
	.long	836683
	.long	836700
	.long	837131
	.long	837148
	.long	837579
	.long	837596
	.long	838027
	.long	838044
	.long	838475
	.long	838492
	.long	838923
	.long	838940
	.long	839371
	.long	839388
	.long	839819
	.long	839836
	.long	840267
	.long	840284
	.long	840715
	.long	840732
	.long	841163
	.long	841180
	.long	841611
	.long	841628
	.long	842059
	.long	842076
	.long	842507
	.long	842524
	.long	842955
	.long	842972
	.long	843403
	.long	843420
	.long	843851
	.long	843868
	.long	844299
	.long	844316
	.long	844747
	.long	844764
	.long	845195
	.long	845212
	.long	845643
	.long	845660
	.long	846091
	.long	846108
	.long	846539
	.long	846556
	.long	846987
	.long	847004
	.long	847435
	.long	847452
	.long	847883
	.long	847900
	.long	848331
	.long	848348
	.long	848779
	.long	848796
	.long	849227
	.long	849244
	.long	849675
	.long	849692
	.long	850123
	.long	850140
	.long	850571
	.long	850588
	.long	851019
	.long	851036
	.long	851467
	.long	851484
	.long	851915
	.long	851932
	.long	852363
	.long	852380
	.long	852811
	.long	852828
	.long	853259
	.long	853276
	.long	853707
	.long	853724
	.long	854155
	.long	854172
	.long	854603
	.long	854620
	.long	855051
	.long	855068
	.long	855499
	.long	855516
	.long	855947
	.long	855964
	.long	856395
	.long	856412
	.long	856843
	.long	856860
	.long	857291
	.long	857308
	.long	857739
	.long	857756
	.long	858187
	.long	858204
	.long	858635
	.long	858652
	.long	859083
	.long	859100
	.long	859531
	.long	859548
	.long	859979
	.long	859996
	.long	860427
	.long	860444
	.long	860875
	.long	860892
	.long	861323
	.long	861340
	.long	861771
	.long	861788
	.long	862219
	.long	862236
	.long	862667
	.long	862684
	.long	863115
	.long	863132
	.long	863563
	.long	863580
	.long	864011
	.long	864028
	.long	864459
	.long	864476
	.long	864907
	.long	864924
	.long	865355
	.long	865372
	.long	865803
	.long	865820
	.long	866251
	.long	866268
	.long	866699
	.long	866716
	.long	867147
	.long	867164
	.long	867595
	.long	867612
	.long	868043
	.long	868060
	.long	868491
	.long	868508
	.long	868939
	.long	868956
	.long	869387
	.long	869404
	.long	869835
	.long	869852
	.long	870283
	.long	870300
	.long	870731
	.long	870748
	.long	871179
	.long	871196
	.long	871627
	.long	871644
	.long	872075
	.long	872092
	.long	872523
	.long	872540
	.long	872971
	.long	872988
	.long	873419
	.long	873436
	.long	873867
	.long	873884
	.long	874315
	.long	874332
	.long	874763
	.long	874780
	.long	875211
	.long	875228
	.long	875659
	.long	875676
	.long	876107
	.long	876124
	.long	876555
	.long	876572
	.long	877003
	.long	877020
	.long	877451
	.long	877468
	.long	877899
	.long	877916
	.long	878347
	.long	878364
	.long	878795
	.long	878812
	.long	879243
	.long	879260
	.long	879691
	.long	879708
	.long	880139
	.long	880156
	.long	880587
	.long	880604
	.long	881035
	.long	881052
	.long	881483
	.long	881500
	.long	881931
	.long	881948
	.long	882379
	.long	882396
	.long	882827
	.long	882844
	.long	883264
	.long	883464
	.long	883824
	.long	883897
	.long	884672
	.long	1028580
	.long	1028592
	.long	1040388
	.long	1040640
	.long	1040900
	.long	1041152
	.long	1044465
	.long	1044480
	.long	1047012
	.long	1047040
	.long	1048321
	.long	1048512
	.long	1056724
	.long	1056736
	.long	1060356
	.long	1060368
	.long	1062756
	.long	1062832
	.long	1089556
	.long	1089600
	.long	1089620
	.long	1089648
	.long	1089732
	.long	1089792
	.long	1090436
	.long	1090480
	.long	1090548
	.long	1090560
	.long	1093204
	.long	1093232
	.long	1102404
	.long	1102464
	.long	1103508
	.long	1103584
	.long	1108660
	.long	1108688
	.long	1109956
	.long	1110016
	.long	1111140
	.long	1111312
	.long	1112100
	.long	1112160
	.long	1114118
	.long	1114132
	.long	1114150
	.long	1114160
	.long	1115012
	.long	1115248
	.long	1115908
	.long	1115920
	.long	1115956
	.long	1115984
	.long	1116148
	.long	1116198
	.long	1116208
	.long	1116934
	.long	1116980
	.long	1117046
	.long	1117076
	.long	1117104
	.long	1117141
	.long	1117152
	.long	1117220
	.long	1117232
	.long	1117397
	.long	1117408
	.long	1118212
	.long	1118256
	.long	1118836
	.long	1118918
	.long	1118932
	.long	1119056
	.long	1119318
	.long	1119344
	.long	1120052
	.long	1120064
	.long	1120260
	.long	1120294
	.long	1120304
	.long	1121078
	.long	1121124
	.long	1121270
	.long	1121284
	.long	1121296
	.long	1121317
	.long	1121344
	.long	1121428
	.long	1121488
	.long	1121510
	.long	1121524
	.long	1121536
	.long	1123014
	.long	1123060
	.long	1123110
	.long	1123140
	.long	1123200
	.long	1123300
	.long	1123312
	.long	1123348
	.long	1123360
	.long	1125876
	.long	1125894
	.long	1125940
	.long	1126064
	.long	1126404
	.long	1126438
	.long	1126464
	.long	1127348
	.long	1127376
	.long	1127396
	.long	1127414
	.long	1127428
	.long	1127446
	.long	1127504
	.long	1127542
	.long	1127568
	.long	1127606
	.long	1127636
	.long	1127648
	.long	1127796
	.long	1127808
	.long	1127974
	.long	1128000
	.long	1128036
	.long	1128144
	.long	1128196
	.long	1128272
	.long	1129348
	.long	1129366
	.long	1129396
	.long	1129488
	.long	1129508
	.long	1129520
	.long	1129556
	.long	1129568
	.long	1129588
	.long	1129638
	.long	1129648
	.long	1129670
	.long	1129700
	.long	1129749
	.long	1129764
	.long	1129776
	.long	1130004
	.long	1130032
	.long	1131350
	.long	1131396
	.long	1131526
	.long	1131556
	.long	1131606
	.long	1131620
	.long	1131632
	.long	1132004
	.long	1132016
	.long	1133316
	.long	1133334
	.long	1133364
	.long	1133462
	.long	1133476
	.long	1133494
	.long	1133524
	.long	1133542
	.long	1133556
	.long	1133590
	.long	1133604
	.long	1133632
	.long	1137396
	.long	1137414
	.long	1137444
	.long	1137504
	.long	1137542
	.long	1137604
	.long	1137638
	.long	1137652
	.long	1137680
	.long	1138116
	.long	1138144
	.long	1139462
	.long	1139508
	.long	1139638
	.long	1139668
	.long	1139686
	.long	1139700
	.long	1139728
	.long	1141428
	.long	1141446
	.long	1141460
	.long	1141478
	.long	1141508
	.long	1141632
	.long	1143252
	.long	1143270
	.long	1143284
	.long	1143296
	.long	1143332
	.long	1143398
	.long	1143412
	.long	1143488
	.long	1147590
	.long	1147636
	.long	1147782
	.long	1147796
	.long	1147824
	.long	1151748
	.long	1151766
	.long	1151840
	.long	1151862
	.long	1151888
	.long	1151924
	.long	1151989
	.long	1152006
	.long	1152021
	.long	1152038
	.long	1152052
	.long	1152064
	.long	1154326
	.long	1154372
	.long	1154432
	.long	1154468
	.long	1154502
	.long	1154564
	.long	1154576
	.long	1154630
	.long	1154640
	.long	1155092
	.long	1155248
	.long	1155892
	.long	1155990
	.long	1156005
	.long	1156020
	.long	1156080
	.long	1156212
	.long	1156224
	.long	1156372
	.long	1156470
	.long	1156500
	.long	1156544
	.long	1157189
	.long	1157284
	.long	1157494
	.long	1157508
	.long	1157536
	.long	1164022
	.long	1164036
	.long	1164144
	.long	1164164
	.long	1164262
	.long	1164276
	.long	1164288
	.long	1165604
	.long	1165952
	.long	1165974
	.long	1165988
	.long	1166102
	.long	1166116
	.long	1166150
	.long	1166164
	.long	1166192
	.long	1168148
	.long	1168240
	.long	1168292
	.long	1168304
	.long	1168324
	.long	1168352
	.long	1168372
	.long	1168485
	.long	1168500
	.long	1168512
	.long	1169574
	.long	1169648
	.long	1169668
	.long	1169696
	.long	1169718
	.long	1169748
	.long	1169766
	.long	1169780
	.long	1169792
	.long	1175348
	.long	1175382
	.long	1175408
	.long	1175556
	.long	1175589
	.long	1175606
	.long	1175616
	.long	1176390
	.long	1176420
	.long	1176496
	.long	1176550
	.long	1176580
	.long	1176624
	.long	1176996
	.long	1177008
	.long	1262337
	.long	1262596
	.long	1262608
	.long	1262708
	.long	1262944
	.long	1446372
	.long	1446566
	.long	1446612
	.long	1446656
	.long	1486596
	.long	1486672
	.long	1487620
	.long	1487728
	.long	1496632
	.long	1496640
	.long	1496696
	.long	1496752
	.long	1504500
	.long	1504512
	.long	1504534
	.long	1505408
	.long	1505524
	.long	1505584
	.long	1506884
	.long	1506896
	.long	1507076
	.long	1507104
	.long	1821140
	.long	1821168
	.long	1821185
	.long	1821248
	.long	1896452
	.long	1897184
	.long	1897220
	.long	1897584
	.long	1906260
	.long	1906336
	.long	1906388
	.long	1906481
	.long	1906612
	.long	1906736
	.long	1906772
	.long	1906880
	.long	1907364
	.long	1907424
	.long	1909796
	.long	1909840
	.long	1941508
	.long	1942384
	.long	1942452
	.long	1943248
	.long	1943380
	.long	1943392
	.long	1943620
	.long	1943632
	.long	1943988
	.long	1944064
	.long	1944084
	.long	1944320
	.long	1966084
	.long	1966192
	.long	1966212
	.long	1966480
	.long	1966516
	.long	1966624
	.long	1966644
	.long	1966672
	.long	1966692
	.long	1966768
	.long	1968372
	.long	1968384
	.long	1970948
	.long	1971056
	.long	1977060
	.long	1977072
	.long	1978052
	.long	1978112
	.long	1986244
	.long	1986304
	.long	1990372
	.long	1990400
	.long	2002180
	.long	2002288
	.long	2004036
	.long	2004144
	.long	2039405
	.long	2039808
	.long	2047924
	.long	2048000
	.long	14680065
	.long	14680580
	.long	14682113
	.long	14684164
	.long	14688001
	.long	14745600
	.weak	_ZNSt9__unicode9__v16_0_014__incb_linkersE
	.section	.rodata._ZNSt9__unicode9__v16_0_014__incb_linkersE,"aG",@progbits,_ZNSt9__unicode9__v16_0_014__incb_linkersE,comdat
	.align 16
	.type	_ZNSt9__unicode9__v16_0_014__incb_linkersE, @gnu_unique_object
	.size	_ZNSt9__unicode9__v16_0_014__incb_linkersE, 24
_ZNSt9__unicode9__v16_0_014__incb_linkersE:
	.long	2381
	.long	2509
	.long	2765
	.long	2893
	.long	3149
	.long	3405
	.weak	_ZNSt9__unicode9__v16_0_012__incb_edgesE
	.section	.rodata._ZNSt9__unicode9__v16_0_012__incb_edgesE,"aG",@progbits,_ZNSt9__unicode9__v16_0_012__incb_edgesE,comdat
	.align 32
	.type	_ZNSt9__unicode9__v16_0_012__incb_edgesE, @gnu_unique_object
	.size	_ZNSt9__unicode9__v16_0_012__incb_edgesE, 3160
_ZNSt9__unicode9__v16_0_012__incb_edgesE:
	.long	3074
	.long	3520
	.long	4622
	.long	4648
	.long	5702
	.long	5880
	.long	5886
	.long	5888
	.long	5894
	.long	5900
	.long	5906
	.long	5912
	.long	5918
	.long	5920
	.long	6210
	.long	6252
	.long	6446
	.long	6528
	.long	6594
	.long	6596
	.long	7002
	.long	7028
	.long	7038
	.long	7060
	.long	7070
	.long	7076
	.long	7082
	.long	7096
	.long	7238
	.long	7240
	.long	7362
	.long	7468
	.long	7834
	.long	7876
	.long	8110
	.long	8144
	.long	8182
	.long	8184
	.long	8282
	.long	8296
	.long	8302
	.long	8336
	.long	8342
	.long	8352
	.long	8358
	.long	8376
	.long	8550
	.long	8560
	.long	8798
	.long	8832
	.long	9002
	.long	9096
	.long	9102
	.long	9228
	.long	9301
	.long	9450
	.long	9452
	.long	9458
	.long	9460
	.long	9478
	.long	9508
	.long	9542
	.long	9569
	.long	9600
	.long	9610
	.long	9616
	.long	9697
	.long	9728
	.long	9734
	.long	9736
	.long	9813
	.long	9892
	.long	9897
	.long	9924
	.long	9929
	.long	9932
	.long	9945
	.long	9960
	.long	9970
	.long	9972
	.long	9978
	.long	9980
	.long	9990
	.long	10004
	.long	10078
	.long	10080
	.long	10097
	.long	10104
	.long	10109
	.long	10112
	.long	10122
	.long	10128
	.long	10177
	.long	10184
	.long	10234
	.long	10236
	.long	10246
	.long	10252
	.long	10482
	.long	10484
	.long	10502
	.long	10508
	.long	10526
	.long	10532
	.long	10542
	.long	10552
	.long	10566
	.long	10568
	.long	10690
	.long	10696
	.long	10710
	.long	10712
	.long	10758
	.long	10764
	.long	10837
	.long	10916
	.long	10921
	.long	10948
	.long	10953
	.long	10960
	.long	10965
	.long	10984
	.long	10994
	.long	10996
	.long	11014
	.long	11032
	.long	11038
	.long	11044
	.long	11146
	.long	11152
	.long	11237
	.long	11242
	.long	11264
	.long	11270
	.long	11272
	.long	11349
	.long	11428
	.long	11433
	.long	11460
	.long	11465
	.long	11472
	.long	11477
	.long	11496
	.long	11506
	.long	11508
	.long	11514
	.long	11520
	.long	11526
	.long	11540
	.long	11606
	.long	11616
	.long	11633
	.long	11640
	.long	11645
	.long	11648
	.long	11658
	.long	11664
	.long	11717
	.long	11720
	.long	11786
	.long	11788
	.long	12026
	.long	12028
	.long	12034
	.long	12036
	.long	12086
	.long	12088
	.long	12126
	.long	12128
	.long	12290
	.long	12292
	.long	12306
	.long	12308
	.long	12373
	.long	12452
	.long	12457
	.long	12520
	.long	12530
	.long	12532
	.long	12538
	.long	12548
	.long	12570
	.long	12580
	.long	12586
	.long	12596
	.long	12630
	.long	12636
	.long	12641
	.long	12652
	.long	12682
	.long	12688
	.long	12806
	.long	12808
	.long	13042
	.long	13044
	.long	13054
	.long	13060
	.long	13066
	.long	13068
	.long	13082
	.long	13092
	.long	13098
	.long	13112
	.long	13142
	.long	13148
	.long	13194
	.long	13200
	.long	13314
	.long	13320
	.long	13397
	.long	13550
	.long	13556
	.long	13562
	.long	13564
	.long	13574
	.long	13588
	.long	13662
	.long	13664
	.long	13706
	.long	13712
	.long	13830
	.long	13832
	.long	14122
	.long	14124
	.long	14142
	.long	14144
	.long	14154
	.long	14164
	.long	14170
	.long	14172
	.long	14206
	.long	14208
	.long	14534
	.long	14536
	.long	14546
	.long	14572
	.long	14622
	.long	14652
	.long	15046
	.long	15048
	.long	15058
	.long	15092
	.long	15138
	.long	15164
	.long	15458
	.long	15464
	.long	15574
	.long	15576
	.long	15582
	.long	15584
	.long	15590
	.long	15592
	.long	15814
	.long	15868
	.long	15874
	.long	15892
	.long	15898
	.long	15904
	.long	15926
	.long	15968
	.long	15974
	.long	16116
	.long	16154
	.long	16156
	.long	16566
	.long	16580
	.long	16586
	.long	16608
	.long	16614
	.long	16620
	.long	16630
	.long	16636
	.long	16738
	.long	16744
	.long	16762
	.long	16772
	.long	16838
	.long	16852
	.long	16906
	.long	16908
	.long	16918
	.long	16924
	.long	16950
	.long	16952
	.long	17014
	.long	17016
	.long	19830
	.long	19840
	.long	23626
	.long	23640
	.long	23754
	.long	23764
	.long	23882
	.long	23888
	.long	24010
	.long	24016
	.long	24274
	.long	24280
	.long	24286
	.long	24312
	.long	24346
	.long	24348
	.long	24358
	.long	24400
	.long	24438
	.long	24440
	.long	24622
	.long	24632
	.long	24638
	.long	24640
	.long	25110
	.long	25116
	.long	25254
	.long	25256
	.long	25730
	.long	25740
	.long	25758
	.long	25764
	.long	25802
	.long	25804
	.long	25830
	.long	25840
	.long	26718
	.long	26724
	.long	26734
	.long	26736
	.long	26970
	.long	26972
	.long	26978
	.long	27004
	.long	27010
	.long	27012
	.long	27018
	.long	27020
	.long	27030
	.long	27060
	.long	27086
	.long	27124
	.long	27134
	.long	27136
	.long	27330
	.long	27452
	.long	27650
	.long	27664
	.long	27858
	.long	27896
	.long	27914
	.long	27924
	.long	28078
	.long	28112
	.long	28162
	.long	28168
	.long	28298
	.long	28312
	.long	28322
	.long	28344
	.long	28570
	.long	28572
	.long	28578
	.long	28584
	.long	28598
	.long	28600
	.long	28606
	.long	28624
	.long	28850
	.long	28880
	.long	28890
	.long	28896
	.long	29506
	.long	29516
	.long	29522
	.long	29572
	.long	29578
	.long	29604
	.long	29622
	.long	29624
	.long	29650
	.long	29652
	.long	29666
	.long	29672
	.long	30466
	.long	30720
	.long	32822
	.long	32824
	.long	33602
	.long	33732
	.long	46014
	.long	46024
	.long	46590
	.long	46592
	.long	46978
	.long	47104
	.long	49322
	.long	49344
	.long	49766
	.long	49772
	.long	170430
	.long	170444
	.long	170450
	.long	170488
	.long	170618
	.long	170624
	.long	170946
	.long	170952
	.long	172042
	.long	172044
	.long	172058
	.long	172060
	.long	172078
	.long	172080
	.long	172182
	.long	172188
	.long	172210
	.long	172212
	.long	172818
	.long	172824
	.long	172930
	.long	173000
	.long	173054
	.long	173056
	.long	173210
	.long	173240
	.long	173342
	.long	173384
	.long	173390
	.long	173392
	.long	173570
	.long	173580
	.long	173774
	.long	173776
	.long	173786
	.long	173800
	.long	173810
	.long	173816
	.long	173826
	.long	173828
	.long	173974
	.long	173976
	.long	174246
	.long	174268
	.long	174278
	.long	174284
	.long	174294
	.long	174300
	.long	174350
	.long	174352
	.long	174386
	.long	174388
	.long	174578
	.long	174580
	.long	174786
	.long	174788
	.long	174794
	.long	174804
	.long	174814
	.long	174820
	.long	174842
	.long	174848
	.long	174854
	.long	174856
	.long	175026
	.long	175032
	.long	175066
	.long	175068
	.long	176022
	.long	176024
	.long	176034
	.long	176036
	.long	176054
	.long	176056
	.long	257146
	.long	257148
	.long	260098
	.long	260160
	.long	260226
	.long	260288
	.long	261754
	.long	261760
	.long	264182
	.long	264184
	.long	265090
	.long	265092
	.long	265690
	.long	265708
	.long	272390
	.long	272400
	.long	272406
	.long	272412
	.long	272434
	.long	272448
	.long	272610
	.long	272620
	.long	272638
	.long	272640
	.long	273302
	.long	273308
	.long	275602
	.long	275616
	.long	275878
	.long	275896
	.long	277166
	.long	277172
	.long	277490
	.long	277504
	.long	277786
	.long	277828
	.long	278026
	.long	278040
	.long	278534
	.long	278536
	.long	278754
	.long	278812
	.long	278978
	.long	278980
	.long	278990
	.long	278996
	.long	279038
	.long	279048
	.long	279246
	.long	279260
	.long	279270
	.long	279276
	.long	279306
	.long	279308
	.long	279554
	.long	279564
	.long	279710
	.long	279728
	.long	279734
	.long	279764
	.long	280014
	.long	280016
	.long	280066
	.long	280072
	.long	280282
	.long	280316
	.long	280322
	.long	280324
	.long	280358
	.long	280372
	.long	280382
	.long	280384
	.long	280766
	.long	280776
	.long	280786
	.long	280800
	.long	280826
	.long	280828
	.long	280838
	.long	280840
	.long	281470
	.long	281472
	.long	281486
	.long	281516
	.long	281602
	.long	281608
	.long	281838
	.long	281844
	.long	281850
	.long	281852
	.long	281858
	.long	281860
	.long	281910
	.long	281912
	.long	281950
	.long	281952
	.long	282010
	.long	282036
	.long	282050
	.long	282068
	.long	282338
	.long	282340
	.long	282350
	.long	282372
	.long	282378
	.long	282380
	.long	282390
	.long	282392
	.long	282398
	.long	282408
	.long	282426
	.long	282436
	.long	282442
	.long	282444
	.long	282502
	.long	282508
	.long	282850
	.long	282880
	.long	282890
	.long	282900
	.long	282906
	.long	282908
	.long	283002
	.long	283004
	.long	283330
	.long	283332
	.long	283342
	.long	283364
	.long	283370
	.long	283372
	.long	283382
	.long	283384
	.long	283390
	.long	283396
	.long	283402
	.long	283408
	.long	284350
	.long	284352
	.long	284362
	.long	284376
	.long	284402
	.long	284408
	.long	284414
	.long	284420
	.long	284530
	.long	284536
	.long	284878
	.long	284908
	.long	284918
	.long	284920
	.long	284926
	.long	284932
	.long	285358
	.long	285360
	.long	285366
	.long	285368
	.long	285378
	.long	285408
	.long	285814
	.long	285816
	.long	285822
	.long	285824
	.long	285834
	.long	285848
	.long	285854
	.long	285872
	.long	286910
	.long	286944
	.long	286950
	.long	286956
	.long	287938
	.long	287940
	.long	287982
	.long	287996
	.long	288014
	.long	288016
	.long	288594
	.long	288608
	.long	288618
	.long	288624
	.long	288642
	.long	288644
	.long	288774
	.long	288812
	.long	288974
	.long	288996
	.long	289006
	.long	289020
	.long	289054
	.long	289056
	.long	289094
	.long	289116
	.long	289126
	.long	289136
	.long	289322
	.long	289372
	.long	289378
	.long	289384
	.long	291010
	.long	291036
	.long	291042
	.long	291064
	.long	291070
	.long	291072
	.long	291402
	.long	291488
	.long	291498
	.long	291524
	.long	291530
	.long	291536
	.long	291542
	.long	291548
	.long	292038
	.long	292060
	.long	292074
	.long	292076
	.long	292082
	.long	292088
	.long	292094
	.long	292120
	.long	292126
	.long	292128
	.long	292418
	.long	292424
	.long	292438
	.long	292440
	.long	292446
	.long	292448
	.long	293838
	.long	293844
	.long	293890
	.long	293896
	.long	294106
	.long	294124
	.long	294146
	.long	294156
	.long	294250
	.long	294252
	.long	315650
	.long	315652
	.long	315678
	.long	315736
	.long	361594
	.long	361640
	.long	361654
	.long	361664
	.long	371650
	.long	371668
	.long	371906
	.long	371932
	.long	376126
	.long	376128
	.long	376382
	.long	376396
	.long	376722
	.long	376724
	.long	376770
	.long	376776
	.long	455286
	.long	455292
	.long	474114
	.long	474296
	.long	474306
	.long	474396
	.long	476566
	.long	476584
	.long	476598
	.long	476620
	.long	476654
	.long	476684
	.long	476694
	.long	476720
	.long	476842
	.long	476856
	.long	477450
	.long	477460
	.long	485378
	.long	485596
	.long	485614
	.long	485812
	.long	485846
	.long	485848
	.long	485906
	.long	485908
	.long	485998
	.long	486016
	.long	486022
	.long	486080
	.long	491522
	.long	491548
	.long	491554
	.long	491620
	.long	491630
	.long	491656
	.long	491662
	.long	491668
	.long	491674
	.long	491692
	.long	492094
	.long	492096
	.long	492738
	.long	492764
	.long	494266
	.long	494268
	.long	494514
	.long	494528
	.long	496562
	.long	496576
	.long	497594
	.long	497600
	.long	500546
	.long	500572
	.long	501010
	.long	501036
	.long	511982
	.long	512000
	.long	3670146
	.long	3670528
	.long	3671042
	.long	3672000
	.weak	_ZNSt9__unicode9__v16_0_014__xpicto_edgesE
	.section	.rodata._ZNSt9__unicode9__v16_0_014__xpicto_edgesE,"aG",@progbits,_ZNSt9__unicode9__v16_0_014__xpicto_edgesE,comdat
	.align 32
	.type	_ZNSt9__unicode9__v16_0_014__xpicto_edgesE, @gnu_unique_object
	.size	_ZNSt9__unicode9__v16_0_014__xpicto_edgesE, 624
_ZNSt9__unicode9__v16_0_014__xpicto_edgesE:
	.long	169
	.long	170
	.long	174
	.long	175
	.long	8252
	.long	8253
	.long	8265
	.long	8266
	.long	8482
	.long	8483
	.long	8505
	.long	8506
	.long	8596
	.long	8602
	.long	8617
	.long	8619
	.long	8986
	.long	8988
	.long	9000
	.long	9001
	.long	9096
	.long	9097
	.long	9167
	.long	9168
	.long	9193
	.long	9204
	.long	9208
	.long	9211
	.long	9410
	.long	9411
	.long	9642
	.long	9644
	.long	9654
	.long	9655
	.long	9664
	.long	9665
	.long	9723
	.long	9727
	.long	9728
	.long	9734
	.long	9735
	.long	9747
	.long	9748
	.long	9862
	.long	9872
	.long	9990
	.long	9992
	.long	10003
	.long	10004
	.long	10005
	.long	10006
	.long	10007
	.long	10013
	.long	10014
	.long	10017
	.long	10018
	.long	10024
	.long	10025
	.long	10035
	.long	10037
	.long	10052
	.long	10053
	.long	10055
	.long	10056
	.long	10060
	.long	10061
	.long	10062
	.long	10063
	.long	10067
	.long	10070
	.long	10071
	.long	10072
	.long	10083
	.long	10088
	.long	10133
	.long	10136
	.long	10145
	.long	10146
	.long	10160
	.long	10161
	.long	10175
	.long	10176
	.long	10548
	.long	10550
	.long	11013
	.long	11016
	.long	11035
	.long	11037
	.long	11088
	.long	11089
	.long	11093
	.long	11094
	.long	12336
	.long	12337
	.long	12349
	.long	12350
	.long	12951
	.long	12952
	.long	12953
	.long	12954
	.long	126976
	.long	127232
	.long	127245
	.long	127248
	.long	127279
	.long	127280
	.long	127340
	.long	127346
	.long	127358
	.long	127360
	.long	127374
	.long	127375
	.long	127377
	.long	127387
	.long	127405
	.long	127462
	.long	127489
	.long	127504
	.long	127514
	.long	127515
	.long	127535
	.long	127536
	.long	127538
	.long	127547
	.long	127548
	.long	127552
	.long	127561
	.long	127995
	.long	128000
	.long	128318
	.long	128326
	.long	128592
	.long	128640
	.long	128768
	.long	128884
	.long	128896
	.long	128981
	.long	129024
	.long	129036
	.long	129040
	.long	129096
	.long	129104
	.long	129114
	.long	129120
	.long	129160
	.long	129168
	.long	129198
	.long	129280
	.long	129292
	.long	129339
	.long	129340
	.long	129350
	.long	129351
	.long	129792
	.long	130048
	.long	131070
	.section	.text._ZNSt9__unicode9__v16_0_013__field_widthEDi,"axG",@progbits,_ZNSt9__unicode9__v16_0_013__field_widthEDi,comdat
	.weak	_ZNSt9__unicode9__v16_0_013__field_widthEDi
	.type	_ZNSt9__unicode9__v16_0_013__field_widthEDi, @function
_ZNSt9__unicode9__v16_0_013__field_widthEDi:
.LFB3370:
	.cfi_startproc
	.cfi_personality 0x3,__gxx_personality_v0
	.cfi_lsda 0x3,.LLSDA3370
	pushq	%rbp
	.cfi_def_cfa_offset 16
	.cfi_offset 6, -16
	movq	%rsp, %rbp
	.cfi_def_cfa_register 6
	subq	$32, %rsp
	movl	%edi, -20(%rbp)
	movl	$4352, %edx
	movl	-20(%rbp), %eax
	cmpl	%edx, %eax
	jnb	.L111
	movl	$1, %eax
	jmp	.L112
.L111:
	movl	$_ZNSt9__unicode9__v16_0_013__width_edgesE+824, %ecx
	leaq	-20(%rbp), %rax
	movq	%rax, %rdx
	movq	%rcx, %rsi
	movl	$_ZNSt9__unicode9__v16_0_013__width_edgesE, %edi
	call	_ZSt11upper_boundIPKDiDiET_S2_S2_RKT0_
	movq	%rax, -8(%rbp)
	movq	-8(%rbp), %rax
	subq	$_ZNSt9__unicode9__v16_0_013__width_edgesE, %rax
	sarq	$2, %rax
	movq	%rax, %rdx
	movq	%rdx, %rax
	sarq	$63, %rax
	shrq	$63, %rax
	addq	%rax, %rdx
	andl	$1, %edx
	subq	%rax, %rdx
	movq	%rdx, %rax
	addl	$1, %eax
.L112:
	leave
	.cfi_def_cfa 7, 8
	ret
	.cfi_endproc
.LFE3370:
	.section	.gcc_except_table._ZNSt9__unicode9__v16_0_013__field_widthEDi,"aG",@progbits,_ZNSt9__unicode9__v16_0_013__field_widthEDi,comdat
.LLSDA3370:
	.byte	0xff
	.byte	0xff
	.byte	0x1
	.uleb128 .LLSDACSE3370-.LLSDACSB3370
.LLSDACSB3370:
.LLSDACSE3370:
	.section	.text._ZNSt9__unicode9__v16_0_013__field_widthEDi,"axG",@progbits,_ZNSt9__unicode9__v16_0_013__field_widthEDi,comdat
	.size	_ZNSt9__unicode9__v16_0_013__field_widthEDi, .-_ZNSt9__unicode9__v16_0_013__field_widthEDi
	.section	.text._ZNSt9__unicode9__v16_0_024__should_escape_categoryEDi,"axG",@progbits,_ZNSt9__unicode9__v16_0_024__should_escape_categoryEDi,comdat
	.weak	_ZNSt9__unicode9__v16_0_024__should_escape_categoryEDi
	.type	_ZNSt9__unicode9__v16_0_024__should_escape_categoryEDi, @function
_ZNSt9__unicode9__v16_0_024__should_escape_categoryEDi:
.LFB3371:
	.cfi_startproc
	.cfi_personality 0x3,__gxx_personality_v0
	.cfi_lsda 0x3,.LLSDA3371
	pushq	%rbp
	.cfi_def_cfa_offset 16
	.cfi_offset 6, -16
	movq	%rsp, %rbp
	.cfi_def_cfa_register 6
	subq	$48, %rsp
	movl	%edi, -36(%rbp)
	movl	$1, -4(%rbp)
	movl	$_ZNSt9__unicode9__v16_0_014__escape_edgesE+5892, %eax
	movq	%rax, -16(%rbp)
	movl	-36(%rbp), %eax
	addl	%eax, %eax
	addl	$2, %eax
	movl	%eax, -28(%rbp)
	leaq	-28(%rbp), %rdx
	movq	-16(%rbp), %rax
	movq	%rax, %rsi
	movl	$_ZNSt9__unicode9__v16_0_014__escape_edgesE, %edi
	call	_ZSt11lower_boundIPKjjET_S2_S2_RKT0_
	movq	%rax, -24(%rbp)
	movq	-24(%rbp), %rax
	subq	$4, %rax
	movl	(%rax), %eax
	andl	$1, %eax
	andl	$1, %eax
	leave
	.cfi_def_cfa 7, 8
	ret
	.cfi_endproc
.LFE3371:
	.section	.gcc_except_table._ZNSt9__unicode9__v16_0_024__should_escape_categoryEDi,"aG",@progbits,_ZNSt9__unicode9__v16_0_024__should_escape_categoryEDi,comdat
.LLSDA3371:
	.byte	0xff
	.byte	0xff
	.byte	0x1
	.uleb128 .LLSDACSE3371-.LLSDACSB3371
.LLSDACSB3371:
.LLSDACSE3371:
	.section	.text._ZNSt9__unicode9__v16_0_024__should_escape_categoryEDi,"axG",@progbits,_ZNSt9__unicode9__v16_0_024__should_escape_categoryEDi,comdat
	.size	_ZNSt9__unicode9__v16_0_024__should_escape_categoryEDi, .-_ZNSt9__unicode9__v16_0_024__should_escape_categoryEDi
	.section	.text._ZNSt9__unicode9__v16_0_033__grapheme_cluster_break_propertyEDi,"axG",@progbits,_ZNSt9__unicode9__v16_0_033__grapheme_cluster_break_propertyEDi,comdat
	.weak	_ZNSt9__unicode9__v16_0_033__grapheme_cluster_break_propertyEDi
	.type	_ZNSt9__unicode9__v16_0_033__grapheme_cluster_break_propertyEDi, @function
_ZNSt9__unicode9__v16_0_033__grapheme_cluster_break_propertyEDi:
.LFB3372:
	.cfi_startproc
	.cfi_personality 0x3,__gxx_personality_v0
	.cfi_lsda 0x3,.LLSDA3372
	pushq	%rbp
	.cfi_def_cfa_offset 16
	.cfi_offset 6, -16
	movq	%rsp, %rbp
	.cfi_def_cfa_register 6
	subq	$48, %rsp
	movl	%edi, -36(%rbp)
	movl	$15, -4(%rbp)
	movl	$_ZNSt9__unicode9__v16_0_011__gcb_edgesE+6868, %eax
	movq	%rax, -16(%rbp)
	movl	-36(%rbp), %eax
	sall	$4, %eax
	orl	$15, %eax
	movl	%eax, -28(%rbp)
	leaq	-28(%rbp), %rdx
	movq	-16(%rbp), %rax
	movq	%rax, %rsi
	movl	$_ZNSt9__unicode9__v16_0_011__gcb_edgesE, %edi
	call	_ZSt11lower_boundIPKjjET_S2_S2_RKT0_
	movq	%rax, -24(%rbp)
	movq	-24(%rbp), %rax
	subq	$4, %rax
	movl	(%rax), %eax
	andl	$15, %eax
	leave
	.cfi_def_cfa 7, 8
	ret
	.cfi_endproc
.LFE3372:
	.section	.gcc_except_table._ZNSt9__unicode9__v16_0_033__grapheme_cluster_break_propertyEDi,"aG",@progbits,_ZNSt9__unicode9__v16_0_033__grapheme_cluster_break_propertyEDi,comdat
.LLSDA3372:
	.byte	0xff
	.byte	0xff
	.byte	0x1
	.uleb128 .LLSDACSE3372-.LLSDACSB3372
.LLSDACSB3372:
.LLSDACSE3372:
	.section	.text._ZNSt9__unicode9__v16_0_033__grapheme_cluster_break_propertyEDi,"axG",@progbits,_ZNSt9__unicode9__v16_0_033__grapheme_cluster_break_propertyEDi,comdat
	.size	_ZNSt9__unicode9__v16_0_033__grapheme_cluster_break_propertyEDi, .-_ZNSt9__unicode9__v16_0_033__grapheme_cluster_break_propertyEDi
	.section	.text._ZNSt9__unicode9__v16_0_016__is_incb_linkerEDi,"axG",@progbits,_ZNSt9__unicode9__v16_0_016__is_incb_linkerEDi,comdat
	.weak	_ZNSt9__unicode9__v16_0_016__is_incb_linkerEDi
	.type	_ZNSt9__unicode9__v16_0_016__is_incb_linkerEDi, @function
_ZNSt9__unicode9__v16_0_016__is_incb_linkerEDi:
.LFB3373:
	.cfi_startproc
	.cfi_personality 0x3,__gxx_personality_v0
	.cfi_lsda 0x3,.LLSDA3373
	pushq	%rbp
	.cfi_def_cfa_offset 16
	.cfi_offset 6, -16
	movq	%rsp, %rbp
	.cfi_def_cfa_register 6
	subq	$32, %rsp
	movl	%edi, -20(%rbp)
	movl	$_ZNSt9__unicode9__v16_0_014__incb_linkersE+24, %eax
	movq	%rax, -8(%rbp)
	leaq	-20(%rbp), %rdx
	movq	-8(%rbp), %rax
	movq	%rax, %rsi
	movl	$_ZNSt9__unicode9__v16_0_014__incb_linkersE, %edi
	call	_ZSt4findIPKDiDiET_S2_S2_RKT0_
	cmpq	%rax, -8(%rbp)
	setne	%al
	leave
	.cfi_def_cfa 7, 8
	ret
	.cfi_endproc
.LFE3373:
	.section	.gcc_except_table._ZNSt9__unicode9__v16_0_016__is_incb_linkerEDi,"aG",@progbits,_ZNSt9__unicode9__v16_0_016__is_incb_linkerEDi,comdat
.LLSDA3373:
	.byte	0xff
	.byte	0xff
	.byte	0x1
	.uleb128 .LLSDACSE3373-.LLSDACSB3373
.LLSDACSB3373:
.LLSDACSE3373:
	.section	.text._ZNSt9__unicode9__v16_0_016__is_incb_linkerEDi,"axG",@progbits,_ZNSt9__unicode9__v16_0_016__is_incb_linkerEDi,comdat
	.size	_ZNSt9__unicode9__v16_0_016__is_incb_linkerEDi, .-_ZNSt9__unicode9__v16_0_016__is_incb_linkerEDi
	.section	.text._ZNSt9__unicode9__v16_0_015__incb_propertyEDi,"axG",@progbits,_ZNSt9__unicode9__v16_0_015__incb_propertyEDi,comdat
	.weak	_ZNSt9__unicode9__v16_0_015__incb_propertyEDi
	.type	_ZNSt9__unicode9__v16_0_015__incb_propertyEDi, @function
_ZNSt9__unicode9__v16_0_015__incb_propertyEDi:
.LFB3374:
	.cfi_startproc
	.cfi_personality 0x3,__gxx_personality_v0
	.cfi_lsda 0x3,.LLSDA3374
	pushq	%rbp
	.cfi_def_cfa_offset 16
	.cfi_offset 6, -16
	movq	%rsp, %rbp
	.cfi_def_cfa_register 6
	subq	$48, %rsp
	movl	%edi, -36(%rbp)
	movl	-36(%rbp), %eax
	sall	$2, %eax
	movl	$3074, %edx
	cmpl	%edx, %eax
	jnb	.L124
	movl	$0, %eax
	jmp	.L125
.L124:
	movl	$3, -4(%rbp)
	movl	$_ZNSt9__unicode9__v16_0_012__incb_edgesE+3160, %eax
	movq	%rax, -16(%rbp)
	movl	-36(%rbp), %eax
	sall	$2, %eax
	orl	$3, %eax
	movl	%eax, -28(%rbp)
	leaq	-28(%rbp), %rdx
	movq	-16(%rbp), %rax
	movq	%rax, %rsi
	movl	$_ZNSt9__unicode9__v16_0_012__incb_edgesE, %edi
	call	_ZSt11lower_boundIPKjjET_S2_S2_RKT0_
	movq	%rax, -24(%rbp)
	movq	-24(%rbp), %rax
	subq	$4, %rax
	movl	(%rax), %eax
	andl	$3, %eax
.L125:
	leave
	.cfi_def_cfa 7, 8
	ret
	.cfi_endproc
.LFE3374:
	.section	.gcc_except_table._ZNSt9__unicode9__v16_0_015__incb_propertyEDi,"aG",@progbits,_ZNSt9__unicode9__v16_0_015__incb_propertyEDi,comdat
.LLSDA3374:
	.byte	0xff
	.byte	0xff
	.byte	0x1
	.uleb128 .LLSDACSE3374-.LLSDACSB3374
.LLSDACSB3374:
.LLSDACSE3374:
	.section	.text._ZNSt9__unicode9__v16_0_015__incb_propertyEDi,"axG",@progbits,_ZNSt9__unicode9__v16_0_015__incb_propertyEDi,comdat
	.size	_ZNSt9__unicode9__v16_0_015__incb_propertyEDi, .-_ZNSt9__unicode9__v16_0_015__incb_propertyEDi
	.section	.text._ZNSt9__unicode9__v16_0_026__is_extended_pictographicEDi,"axG",@progbits,_ZNSt9__unicode9__v16_0_026__is_extended_pictographicEDi,comdat
	.weak	_ZNSt9__unicode9__v16_0_026__is_extended_pictographicEDi
	.type	_ZNSt9__unicode9__v16_0_026__is_extended_pictographicEDi, @function
_ZNSt9__unicode9__v16_0_026__is_extended_pictographicEDi:
.LFB3375:
	.cfi_startproc
	pushq	%rbp
	.cfi_def_cfa_offset 16
	.cfi_offset 6, -16
	movq	%rsp, %rbp
	.cfi_def_cfa_register 6
	subq	$32, %rsp
	movl	%edi, -20(%rbp)
	movl	$169, %edx
	movl	-20(%rbp), %eax
	cmpl	%edx, %eax
	jnb	.L128
	movl	$0, %eax
	jmp	.L129
.L128:
	movl	$_ZNSt9__unicode9__v16_0_014__xpicto_edgesE+624, %ecx
	leaq	-20(%rbp), %rax
	movq	%rax, %rdx
	movq	%rcx, %rsi
	movl	$_ZNSt9__unicode9__v16_0_014__xpicto_edgesE, %edi
	call	_ZSt11upper_boundIPKDiDiET_S2_S2_RKT0_
	movq	%rax, -8(%rbp)
	movq	-8(%rbp), %rax
	subq	$_ZNSt9__unicode9__v16_0_014__xpicto_edgesE, %rax
	sarq	$2, %rax
	andl	$1, %eax
	andl	$1, %eax
.L129:
	leave
	.cfi_def_cfa 7, 8
	ret
	.cfi_endproc
.LFE3375:
	.size	_ZNSt9__unicode9__v16_0_026__is_extended_pictographicEDi, .-_ZNSt9__unicode9__v16_0_026__is_extended_pictographicEDi
	.section	.text._ZNSt9__unicode9__v16_0_031_Grapheme_cluster_iterator_base8_M_resetEDiNS0_13_Gcb_propertyE,"axG",@progbits,_ZNSt9__unicode9__v16_0_031_Grapheme_cluster_iterator_base8_M_resetEDiNS0_13_Gcb_propertyE,comdat
	.align 2
	.weak	_ZNSt9__unicode9__v16_0_031_Grapheme_cluster_iterator_base8_M_resetEDiNS0_13_Gcb_propertyE
	.type	_ZNSt9__unicode9__v16_0_031_Grapheme_cluster_iterator_base8_M_resetEDiNS0_13_Gcb_propertyE, @function
_ZNSt9__unicode9__v16_0_031_Grapheme_cluster_iterator_base8_M_resetEDiNS0_13_Gcb_propertyE:
.LFB3376:
	.cfi_startproc
	pushq	%rbp
	.cfi_def_cfa_offset 16
	.cfi_offset 6, -16
	movq	%rsp, %rbp
	.cfi_def_cfa_register 6
	movq	%rdi, -8(%rbp)
	movl	%esi, -12(%rbp)
	movl	%edx, -16(%rbp)
	movq	-8(%rbp), %rax
	movl	-12(%rbp), %edx
	movl	%edx, (%rax)
	movq	-8(%rbp), %rax
	movl	-16(%rbp), %edx
	movl	%edx, 4(%rax)
	movq	-8(%rbp), %rax
	movb	$0, 8(%rax)
	movq	-8(%rbp), %rax
	movb	$0, 9(%rax)
	movq	-8(%rbp), %rax
	movb	$0, 10(%rax)
	nop
	popq	%rbp
	.cfi_def_cfa 7, 8
	ret
	.cfi_endproc
.LFE3376:
	.size	_ZNSt9__unicode9__v16_0_031_Grapheme_cluster_iterator_base8_M_resetEDiNS0_13_Gcb_propertyE, .-_ZNSt9__unicode9__v16_0_031_Grapheme_cluster_iterator_base8_M_resetEDiNS0_13_Gcb_propertyE
	.section	.text._ZNSt9__unicode9__v16_0_031_Grapheme_cluster_iterator_base26_M_update_xpicto_seq_stateEDiNS0_13_Gcb_propertyE,"axG",@progbits,_ZNSt9__unicode9__v16_0_031_Grapheme_cluster_iterator_base26_M_update_xpicto_seq_stateEDiNS0_13_Gcb_propertyE,comdat
	.align 2
	.weak	_ZNSt9__unicode9__v16_0_031_Grapheme_cluster_iterator_base26_M_update_xpicto_seq_stateEDiNS0_13_Gcb_propertyE
	.type	_ZNSt9__unicode9__v16_0_031_Grapheme_cluster_iterator_base26_M_update_xpicto_seq_stateEDiNS0_13_Gcb_propertyE, @function
_ZNSt9__unicode9__v16_0_031_Grapheme_cluster_iterator_base26_M_update_xpicto_seq_stateEDiNS0_13_Gcb_propertyE:
.LFB3377:
	.cfi_startproc
	pushq	%rbp
	.cfi_def_cfa_offset 16
	.cfi_offset 6, -16
	movq	%rsp, %rbp
	.cfi_def_cfa_register 6
	subq	$32, %rsp
	movq	%rdi, -24(%rbp)
	movl	%esi, -28(%rbp)
	movl	%edx, -32(%rbp)
	movq	-24(%rbp), %rax
	movzbl	8(%rax), %eax
	cmpb	$3, %al
	je	.L141
	movb	$3, -1(%rbp)
	movq	-24(%rbp), %rax
	movzbl	8(%rax), %eax
	cmpb	$1, %al
	je	.L135
	cmpl	$10, -32(%rbp)
	jne	.L136
	movq	-24(%rbp), %rax
	movzbl	8(%rax), %eax
	cmpb	$2, %al
	jne	.L137
	movb	$1, -1(%rbp)
	jmp	.L138
.L137:
	movq	-24(%rbp), %rax
	movl	(%rax), %eax
	movl	%eax, %edi
	call	_ZNSt9__unicode9__v16_0_026__is_extended_pictographicEDi
	testb	%al, %al
	je	.L138
	movb	$1, -1(%rbp)
	jmp	.L138
.L136:
	cmpl	$4, -32(%rbp)
	jne	.L138
	movq	-24(%rbp), %rax
	movzbl	8(%rax), %eax
	movb	%al, -1(%rbp)
	jmp	.L138
.L135:
	cmpl	$0, -32(%rbp)
	jne	.L139
	movl	-28(%rbp), %eax
	movl	%eax, %edi
	call	_ZNSt9__unicode9__v16_0_026__is_extended_pictographicEDi
	testb	%al, %al
	je	.L139
	movl	$1, %eax
	jmp	.L140
.L139:
	movl	$0, %eax
.L140:
	testb	%al, %al
	je	.L138
	movb	$2, -1(%rbp)
.L138:
	movq	-24(%rbp), %rax
	movzbl	-1(%rbp), %edx
	movb	%dl, 8(%rax)
	jmp	.L132
.L141:
	nop
.L132:
	leave
	.cfi_def_cfa 7, 8
	ret
	.cfi_endproc
.LFE3377:
	.size	_ZNSt9__unicode9__v16_0_031_Grapheme_cluster_iterator_base26_M_update_xpicto_seq_stateEDiNS0_13_Gcb_propertyE, .-_ZNSt9__unicode9__v16_0_031_Grapheme_cluster_iterator_base26_M_update_xpicto_seq_stateEDiNS0_13_Gcb_propertyE
	.section	.text._ZNSt9__unicode9__v16_0_031_Grapheme_cluster_iterator_base18_M_update_ri_countENS0_13_Gcb_propertyE,"axG",@progbits,_ZNSt9__unicode9__v16_0_031_Grapheme_cluster_iterator_base18_M_update_ri_countENS0_13_Gcb_propertyE,comdat
	.align 2
	.weak	_ZNSt9__unicode9__v16_0_031_Grapheme_cluster_iterator_base18_M_update_ri_countENS0_13_Gcb_propertyE
	.type	_ZNSt9__unicode9__v16_0_031_Grapheme_cluster_iterator_base18_M_update_ri_countENS0_13_Gcb_propertyE, @function
_ZNSt9__unicode9__v16_0_031_Grapheme_cluster_iterator_base18_M_update_ri_countENS0_13_Gcb_propertyE:
.LFB3378:
	.cfi_startproc
	pushq	%rbp
	.cfi_def_cfa_offset 16
	.cfi_offset 6, -16
	movq	%rsp, %rbp
	.cfi_def_cfa_register 6
	movq	%rdi, -8(%rbp)
	movl	%esi, -12(%rbp)
	cmpl	$13, -12(%rbp)
	jne	.L143
	movq	-8(%rbp), %rax
	movzbl	9(%rax), %eax
	leal	1(%rax), %edx
	movq	-8(%rbp), %rax
	movb	%dl, 9(%rax)
	jmp	.L145
.L143:
	movq	-8(%rbp), %rax
	movb	$0, 9(%rax)
.L145:
	nop
	popq	%rbp
	.cfi_def_cfa 7, 8
	ret
	.cfi_endproc
.LFE3378:
	.size	_ZNSt9__unicode9__v16_0_031_Grapheme_cluster_iterator_base18_M_update_ri_countENS0_13_Gcb_propertyE, .-_ZNSt9__unicode9__v16_0_031_Grapheme_cluster_iterator_base18_M_update_ri_countENS0_13_Gcb_propertyE
	.section	.text._ZNSt9__unicode9__v16_0_031_Grapheme_cluster_iterator_base20_M_update_incb_stateEDiNS0_13_Gcb_propertyE,"axG",@progbits,_ZNSt9__unicode9__v16_0_031_Grapheme_cluster_iterator_base20_M_update_incb_stateEDiNS0_13_Gcb_propertyE,comdat
	.align 2
	.weak	_ZNSt9__unicode9__v16_0_031_Grapheme_cluster_iterator_base20_M_update_incb_stateEDiNS0_13_Gcb_propertyE
	.type	_ZNSt9__unicode9__v16_0_031_Grapheme_cluster_iterator_base20_M_update_incb_stateEDiNS0_13_Gcb_propertyE, @function
_ZNSt9__unicode9__v16_0_031_Grapheme_cluster_iterator_base20_M_update_incb_stateEDiNS0_13_Gcb_propertyE:
.LFB3379:
	.cfi_startproc
	pushq	%rbp
	.cfi_def_cfa_offset 16
	.cfi_offset 6, -16
	movq	%rsp, %rbp
	.cfi_def_cfa_register 6
	subq	$16, %rsp
	movq	%rdi, -8(%rbp)
	movl	%esi, -12(%rbp)
	movl	%edx, -16(%rbp)
	movl	-12(%rbp), %eax
	movl	%eax, %edi
	call	_ZNSt9__unicode9__v16_0_016__is_incb_linkerEDi
	testb	%al, %al
	je	.L148
	movq	-8(%rbp), %rax
	movb	$1, 10(%rax)
.L148:
	nop
	leave
	.cfi_def_cfa 7, 8
	ret
	.cfi_endproc
.LFE3379:
	.size	_ZNSt9__unicode9__v16_0_031_Grapheme_cluster_iterator_base20_M_update_incb_stateEDiNS0_13_Gcb_propertyE, .-_ZNSt9__unicode9__v16_0_031_Grapheme_cluster_iterator_base20_M_update_incb_stateEDiNS0_13_Gcb_propertyE
	.weak	_ZNSt8__detail31__from_chars_alnum_to_val_tableILb0EE5valueE
	.section	.rodata._ZNSt8__detail31__from_chars_alnum_to_val_tableILb0EE5valueE,"aG",@progbits,_ZNSt8__detail31__from_chars_alnum_to_val_tableILb0EE5valueE,comdat
	.align 32
	.type	_ZNSt8__detail31__from_chars_alnum_to_val_tableILb0EE5valueE, @gnu_unique_object
	.size	_ZNSt8__detail31__from_chars_alnum_to_val_tableILb0EE5valueE, 256
_ZNSt8__detail31__from_chars_alnum_to_val_tableILb0EE5valueE:
	.byte	127
	.byte	127
	.byte	127
	.byte	127
	.byte	127
	.byte	127
	.byte	127
	.byte	127
	.byte	127
	.byte	127
	.byte	127
	.byte	127
	.byte	127
	.byte	127
	.byte	127
	.byte	127
	.byte	127
	.byte	127
	.byte	127
	.byte	127
	.byte	127
	.byte	127
	.byte	127
	.byte	127
	.byte	127
	.byte	127
	.byte	127
	.byte	127
	.byte	127
	.byte	127
	.byte	127
	.byte	127
	.byte	127
	.byte	127
	.byte	127
	.byte	127
	.byte	127
	.byte	127
	.byte	127
	.byte	127
	.byte	127
	.byte	127
	.byte	127
	.byte	127
	.byte	127
	.byte	127
	.byte	127
	.byte	127
	.byte	0
	.byte	1
	.byte	2
	.byte	3
	.byte	4
	.byte	5
	.byte	6
	.byte	7
	.byte	8
	.byte	9
	.byte	127
	.byte	127
	.byte	127
	.byte	127
	.byte	127
	.byte	127
	.byte	127
	.byte	10
	.byte	11
	.byte	12
	.byte	13
	.byte	14
	.byte	15
	.byte	16
	.byte	17
	.byte	18
	.byte	19
	.byte	20
	.byte	21
	.byte	22
	.byte	23
	.byte	24
	.byte	25
	.byte	26
	.byte	27
	.byte	28
	.byte	29
	.byte	30
	.byte	31
	.byte	32
	.byte	33
	.byte	34
	.byte	35
	.byte	127
	.byte	127
	.byte	127
	.byte	127
	.byte	127
	.byte	127
	.byte	10
	.byte	11
	.byte	12
	.byte	13
	.byte	14
	.byte	15
	.byte	16
	.byte	17
	.byte	18
	.byte	19
	.byte	20
	.byte	21
	.byte	22
	.byte	23
	.byte	24
	.byte	25
	.byte	26
	.byte	27
	.byte	28
	.byte	29
	.byte	30
	.byte	31
	.byte	32
	.byte	33
	.byte	34
	.byte	35
	.byte	127
	.byte	127
	.byte	127
	.byte	127
	.byte	127
	.byte	127
	.byte	127
	.byte	127
	.byte	127
	.byte	127
	.byte	127
	.byte	127
	.byte	127
	.byte	127
	.byte	127
	.byte	127
	.byte	127
	.byte	127
	.byte	127
	.byte	127
	.byte	127
	.byte	127
	.byte	127
	.byte	127
	.byte	127
	.byte	127
	.byte	127
	.byte	127
	.byte	127
	.byte	127
	.byte	127
	.byte	127
	.byte	127
	.byte	127
	.byte	127
	.byte	127
	.byte	127
	.byte	127
	.byte	127
	.byte	127
	.byte	127
	.byte	127
	.byte	127
	.byte	127
	.byte	127
	.byte	127
	.byte	127
	.byte	127
	.byte	127
	.byte	127
	.byte	127
	.byte	127
	.byte	127
	.byte	127
	.byte	127
	.byte	127
	.byte	127
	.byte	127
	.byte	127
	.byte	127
	.byte	127
	.byte	127
	.byte	127
	.byte	127
	.byte	127
	.byte	127
	.byte	127
	.byte	127
	.byte	127
	.byte	127
	.byte	127
	.byte	127
	.byte	127
	.byte	127
	.byte	127
	.byte	127
	.byte	127
	.byte	127
	.byte	127
	.byte	127
	.byte	127
	.byte	127
	.byte	127
	.byte	127
	.byte	127
	.byte	127
	.byte	127
	.byte	127
	.byte	127
	.byte	127
	.byte	127
	.byte	127
	.byte	127
	.byte	127
	.byte	127
	.byte	127
	.byte	127
	.byte	127
	.byte	127
	.byte	127
	.byte	127
	.byte	127
	.byte	127
	.byte	127
	.byte	127
	.byte	127
	.byte	127
	.byte	127
	.byte	127
	.byte	127
	.byte	127
	.byte	127
	.byte	127
	.byte	127
	.byte	127
	.byte	127
	.byte	127
	.byte	127
	.byte	127
	.byte	127
	.byte	127
	.byte	127
	.byte	127
	.byte	127
	.byte	127
	.byte	127
	.byte	127
	.byte	127
	.byte	127
	.byte	127
	.byte	127
	.byte	127
	.byte	127
	.section	.text._ZNSt8__detail25__from_chars_alnum_to_valILb0EEEhh,"axG",@progbits,_ZNSt8__detail25__from_chars_alnum_to_valILb0EEEhh,comdat
	.weak	_ZNSt8__detail25__from_chars_alnum_to_valILb0EEEhh
	.type	_ZNSt8__detail25__from_chars_alnum_to_valILb0EEEhh, @function
_ZNSt8__detail25__from_chars_alnum_to_valILb0EEEhh:
.LFB3402:
	.cfi_startproc
	pushq	%rbp
	.cfi_def_cfa_offset 16
	.cfi_offset 6, -16
	movq	%rsp, %rbp
	.cfi_def_cfa_register 6
	movl	%edi, %eax
	movb	%al, -4(%rbp)
	movzbl	-4(%rbp), %eax
	cltq
	movzbl	_ZNSt8__detail31__from_chars_alnum_to_val_tableILb0EE5valueE(%rax), %eax
	popq	%rbp
	.cfi_def_cfa 7, 8
	ret
	.cfi_endproc
.LFE3402:
	.size	_ZNSt8__detail25__from_chars_alnum_to_valILb0EEEhh, .-_ZNSt8__detail25__from_chars_alnum_to_valILb0EEEhh
	.section	.text._ZNSt12format_errorC2EPKc,"axG",@progbits,_ZNSt12format_errorC5EPKc,comdat
	.align 2
	.weak	_ZNSt12format_errorC2EPKc
	.type	_ZNSt12format_errorC2EPKc, @function
_ZNSt12format_errorC2EPKc:
.LFB3417:
	.cfi_startproc
	pushq	%rbp
	.cfi_def_cfa_offset 16
	.cfi_offset 6, -16
	movq	%rsp, %rbp
	.cfi_def_cfa_register 6
	subq	$16, %rsp
	movq	%rdi, -8(%rbp)
	movq	%rsi, -16(%rbp)
	movq	-8(%rbp), %rax
	movq	-16(%rbp), %rdx
	movq	%rdx, %rsi
	movq	%rax, %rdi
	call	_ZNSt13runtime_errorC2EPKc
	movl	$_ZTVSt12format_error+16, %edx
	movq	-8(%rbp), %rax
	movq	%rdx, (%rax)
	nop
	leave
	.cfi_def_cfa 7, 8
	ret
	.cfi_endproc
.LFE3417:
	.size	_ZNSt12format_errorC2EPKc, .-_ZNSt12format_errorC2EPKc
	.weak	_ZNSt12format_errorC1EPKc
	.set	_ZNSt12format_errorC1EPKc,_ZNSt12format_errorC2EPKc
	.section	.text._ZNSt12format_errorD2Ev,"axG",@progbits,_ZNSt12format_errorD5Ev,comdat
	.align 2
	.weak	_ZNSt12format_errorD2Ev
	.type	_ZNSt12format_errorD2Ev, @function
_ZNSt12format_errorD2Ev:
.LFB3421:
	.cfi_startproc
	pushq	%rbp
	.cfi_def_cfa_offset 16
	.cfi_offset 6, -16
	movq	%rsp, %rbp
	.cfi_def_cfa_register 6
	subq	$16, %rsp
	movq	%rdi, -8(%rbp)
	movl	$_ZTVSt12format_error+16, %edx
	movq	-8(%rbp), %rax
	movq	%rdx, (%rax)
	movq	-8(%rbp), %rax
	movq	%rax, %rdi
	call	_ZNSt13runtime_errorD2Ev
	nop
	leave
	.cfi_def_cfa 7, 8
	ret
	.cfi_endproc
.LFE3421:
	.size	_ZNSt12format_errorD2Ev, .-_ZNSt12format_errorD2Ev
	.weak	_ZNSt12format_errorD1Ev
	.set	_ZNSt12format_errorD1Ev,_ZNSt12format_errorD2Ev
	.section	.text._ZNSt12format_errorD0Ev,"axG",@progbits,_ZNSt12format_errorD5Ev,comdat
	.align 2
	.weak	_ZNSt12format_errorD0Ev
	.type	_ZNSt12format_errorD0Ev, @function
_ZNSt12format_errorD0Ev:
.LFB3423:
	.cfi_startproc
	pushq	%rbp
	.cfi_def_cfa_offset 16
	.cfi_offset 6, -16
	movq	%rsp, %rbp
	.cfi_def_cfa_register 6
	subq	$16, %rsp
	movq	%rdi, -8(%rbp)
	movq	-8(%rbp), %rax
	movq	%rax, %rdi
	call	_ZNSt12format_errorD1Ev
	movq	-8(%rbp), %rax
	movl	$16, %esi
	movq	%rax, %rdi
	call	_ZdlPvm
	leave
	.cfi_def_cfa 7, 8
	ret
	.cfi_endproc
.LFE3423:
	.size	_ZNSt12format_errorD0Ev, .-_ZNSt12format_errorD0Ev
	.section	.text._ZSt20__throw_format_errorPKc,"axG",@progbits,_ZSt20__throw_format_errorPKc,comdat
	.weak	_ZSt20__throw_format_errorPKc
	.type	_ZSt20__throw_format_errorPKc, @function
_ZSt20__throw_format_errorPKc:
.LFB3419:
	.cfi_startproc
	.cfi_personality 0x3,__gxx_personality_v0
	.cfi_lsda 0x3,.LLSDA3419
	pushq	%rbp
	.cfi_def_cfa_offset 16
	.cfi_offset 6, -16
	movq	%rsp, %rbp
	.cfi_def_cfa_register 6
	pushq	%r12
	pushq	%rbx
	subq	$16, %rsp
	.cfi_offset 12, -24
	.cfi_offset 3, -32
	movq	%rdi, -24(%rbp)
	movl	$16, %edi
	call	__cxa_allocate_exception
	movq	%rax, %rbx
	movq	-24(%rbp), %rax
	movq	%rax, %rsi
	movq	%rbx, %rdi
.LEHB0:
	call	_ZNSt12format_errorC1EPKc
.LEHE0:
	movl	$_ZNSt12format_errorD1Ev, %edx
	movl	$_ZTISt12format_error, %esi
	movq	%rbx, %rdi
.LEHB1:
	call	__cxa_throw
.L156:
	movq	%rax, %r12
	movq	%rbx, %rdi
	call	__cxa_free_exception
	movq	%r12, %rax
	movq	%rax, %rdi
	call	_Unwind_Resume
.LEHE1:
	.cfi_endproc
.LFE3419:
	.section	.gcc_except_table._ZSt20__throw_format_errorPKc,"aG",@progbits,_ZSt20__throw_format_errorPKc,comdat
.LLSDA3419:
	.byte	0xff
	.byte	0xff
	.byte	0x1
	.uleb128 .LLSDACSE3419-.LLSDACSB3419
.LLSDACSB3419:
	.uleb128 .LEHB0-.LFB3419
	.uleb128 .LEHE0-.LEHB0
	.uleb128 .L156-.LFB3419
	.uleb128 0
	.uleb128 .LEHB1-.LFB3419
	.uleb128 .LEHE1-.LEHB1
	.uleb128 0
	.uleb128 0
.LLSDACSE3419:
	.section	.text._ZSt20__throw_format_errorPKc,"axG",@progbits,_ZSt20__throw_format_errorPKc,comdat
	.size	_ZSt20__throw_format_errorPKc, .-_ZSt20__throw_format_errorPKc
	.section	.rodata
	.align 8
.LC1:
	.string	"format error: unmatched '{' in format string"
	.section	.text._ZNSt8__format39__unmatched_left_brace_in_format_stringEv,"axG",@progbits,_ZNSt8__format39__unmatched_left_brace_in_format_stringEv,comdat
	.weak	_ZNSt8__format39__unmatched_left_brace_in_format_stringEv
	.type	_ZNSt8__format39__unmatched_left_brace_in_format_stringEv, @function
_ZNSt8__format39__unmatched_left_brace_in_format_stringEv:
.LFB3424:
	.cfi_startproc
	pushq	%rbp
	.cfi_def_cfa_offset 16
	.cfi_offset 6, -16
	movq	%rsp, %rbp
	.cfi_def_cfa_register 6
	movl	$.LC1, %edi
	call	_ZSt20__throw_format_errorPKc
	.cfi_endproc
.LFE3424:
	.size	_ZNSt8__format39__unmatched_left_brace_in_format_stringEv, .-_ZNSt8__format39__unmatched_left_brace_in_format_stringEv
	.section	.rodata
	.align 8
.LC2:
	.string	"format error: unmatched '}' in format string"
	.section	.text._ZNSt8__format40__unmatched_right_brace_in_format_stringEv,"axG",@progbits,_ZNSt8__format40__unmatched_right_brace_in_format_stringEv,comdat
	.weak	_ZNSt8__format40__unmatched_right_brace_in_format_stringEv
	.type	_ZNSt8__format40__unmatched_right_brace_in_format_stringEv, @function
_ZNSt8__format40__unmatched_right_brace_in_format_stringEv:
.LFB3425:
	.cfi_startproc
	pushq	%rbp
	.cfi_def_cfa_offset 16
	.cfi_offset 6, -16
	movq	%rsp, %rbp
	.cfi_def_cfa_register 6
	movl	$.LC2, %edi
	call	_ZSt20__throw_format_errorPKc
	.cfi_endproc
.LFE3425:
	.size	_ZNSt8__format40__unmatched_right_brace_in_format_stringEv, .-_ZNSt8__format40__unmatched_right_brace_in_format_stringEv
	.section	.rodata
	.align 8
.LC3:
	.string	"format error: conflicting indexing style in format string"
	.section	.text._ZNSt8__format39__conflicting_indexing_in_format_stringEv,"axG",@progbits,_ZNSt8__format39__conflicting_indexing_in_format_stringEv,comdat
	.weak	_ZNSt8__format39__conflicting_indexing_in_format_stringEv
	.type	_ZNSt8__format39__conflicting_indexing_in_format_stringEv, @function
_ZNSt8__format39__conflicting_indexing_in_format_stringEv:
.LFB3426:
	.cfi_startproc
	pushq	%rbp
	.cfi_def_cfa_offset 16
	.cfi_offset 6, -16
	movq	%rsp, %rbp
	.cfi_def_cfa_register 6
	movl	$.LC3, %edi
	call	_ZSt20__throw_format_errorPKc
	.cfi_endproc
.LFE3426:
	.size	_ZNSt8__format39__conflicting_indexing_in_format_stringEv, .-_ZNSt8__format39__conflicting_indexing_in_format_stringEv
	.section	.rodata
	.align 8
.LC4:
	.string	"format error: invalid arg-id in format string"
	.section	.text._ZNSt8__format33__invalid_arg_id_in_format_stringEv,"axG",@progbits,_ZNSt8__format33__invalid_arg_id_in_format_stringEv,comdat
	.weak	_ZNSt8__format33__invalid_arg_id_in_format_stringEv
	.type	_ZNSt8__format33__invalid_arg_id_in_format_stringEv, @function
_ZNSt8__format33__invalid_arg_id_in_format_stringEv:
.LFB3427:
	.cfi_startproc
	pushq	%rbp
	.cfi_def_cfa_offset 16
	.cfi_offset 6, -16
	movq	%rsp, %rbp
	.cfi_def_cfa_register 6
	movl	$.LC4, %edi
	call	_ZSt20__throw_format_errorPKc
	.cfi_endproc
.LFE3427:
	.size	_ZNSt8__format33__invalid_arg_id_in_format_stringEv, .-_ZNSt8__format33__invalid_arg_id_in_format_stringEv
	.section	.rodata
	.align 8
.LC5:
	.string	"format error: failed to parse format-spec"
	.section	.text._ZNSt8__format29__failed_to_parse_format_specEv,"axG",@progbits,_ZNSt8__format29__failed_to_parse_format_specEv,comdat
	.weak	_ZNSt8__format29__failed_to_parse_format_specEv
	.type	_ZNSt8__format29__failed_to_parse_format_specEv, @function
_ZNSt8__format29__failed_to_parse_format_specEv:
.LFB3428:
	.cfi_startproc
	pushq	%rbp
	.cfi_def_cfa_offset 16
	.cfi_offset 6, -16
	movq	%rsp, %rbp
	.cfi_def_cfa_register 6
	movl	$.LC5, %edi
	call	_ZSt20__throw_format_errorPKc
	.cfi_endproc
.LFE3428:
	.size	_ZNSt8__format29__failed_to_parse_format_specEv, .-_ZNSt8__format29__failed_to_parse_format_specEv
	.section	.text._ZNSt8__format10__is_digitEc,"axG",@progbits,_ZNSt8__format10__is_digitEc,comdat
	.weak	_ZNSt8__format10__is_digitEc
	.type	_ZNSt8__format10__is_digitEc, @function
_ZNSt8__format10__is_digitEc:
.LFB3444:
	.cfi_startproc
	pushq	%rbp
	.cfi_def_cfa_offset 16
	.cfi_offset 6, -16
	movq	%rsp, %rbp
	.cfi_def_cfa_register 6
	subq	$16, %rsp
	movl	%edi, %eax
	movb	%al, -4(%rbp)
	movzbl	-4(%rbp), %eax
	movzbl	%al, %eax
	movl	%eax, %edi
	call	_ZNSt8__detail25__from_chars_alnum_to_valILb0EEEhh
	cmpb	$9, %al
	setbe	%al
	leave
	.cfi_def_cfa 7, 8
	ret
	.cfi_endproc
.LFE3444:
	.size	_ZNSt8__format10__is_digitEc, .-_ZNSt8__format10__is_digitEc
	.section	.text._ZNSt8__format11__is_xdigitEc,"axG",@progbits,_ZNSt8__format11__is_xdigitEc,comdat
	.weak	_ZNSt8__format11__is_xdigitEc
	.type	_ZNSt8__format11__is_xdigitEc, @function
_ZNSt8__format11__is_xdigitEc:
.LFB3445:
	.cfi_startproc
	pushq	%rbp
	.cfi_def_cfa_offset 16
	.cfi_offset 6, -16
	movq	%rsp, %rbp
	.cfi_def_cfa_register 6
	subq	$16, %rsp
	movl	%edi, %eax
	movb	%al, -4(%rbp)
	movzbl	-4(%rbp), %eax
	movzbl	%al, %eax
	movl	%eax, %edi
	call	_ZNSt8__detail25__from_chars_alnum_to_valILb0EEEhh
	cmpb	$15, %al
	setbe	%al
	leave
	.cfi_def_cfa 7, 8
	ret
	.cfi_endproc
.LFE3445:
	.size	_ZNSt8__format11__is_xdigitEc, .-_ZNSt8__format11__is_xdigitEc
	.section	.text._ZNSt8__format23__should_escape_unicodeEDib,"axG",@progbits,_ZNSt8__format23__should_escape_unicodeEDib,comdat
	.weak	_ZNSt8__format23__should_escape_unicodeEDib
	.type	_ZNSt8__format23__should_escape_unicodeEDib, @function
_ZNSt8__format23__should_escape_unicodeEDib:
.LFB3481:
	.cfi_startproc
	pushq	%rbp
	.cfi_def_cfa_offset 16
	.cfi_offset 6, -16
	movq	%rsp, %rbp
	.cfi_def_cfa_register 6
	subq	$16, %rsp
	movl	%edi, -4(%rbp)
	movl	%esi, %eax
	movb	%al, -8(%rbp)
	movl	-4(%rbp), %eax
	movl	%eax, %edi
	call	_ZNSt9__unicode9__v16_0_024__should_escape_categoryEDi
	testb	%al, %al
	je	.L167
	cmpl	$32, -4(%rbp)
	setne	%al
	jmp	.L168
.L167:
	movzbl	-8(%rbp), %eax
	xorl	$1, %eax
	testb	%al, %al
	je	.L169
	movl	$0, %eax
	jmp	.L168
.L169:
	movl	-4(%rbp), %eax
	movl	%eax, %edi
	call	_ZNSt9__unicode9__v16_0_033__grapheme_cluster_break_propertyEDi
	cmpl	$4, %eax
	sete	%al
.L168:
	leave
	.cfi_def_cfa 7, 8
	ret
	.cfi_endproc
.LFE3481:
	.size	_ZNSt8__format23__should_escape_unicodeEDib, .-_ZNSt8__format23__should_escape_unicodeEDib
	.section	.text._ZNKSt17basic_string_viewIcSt11char_traitsIcEE4sizeEv,"axG",@progbits,_ZNKSt17basic_string_viewIcSt11char_traitsIcEE4sizeEv,comdat
	.align 2
	.weak	_ZNKSt17basic_string_viewIcSt11char_traitsIcEE4sizeEv
	.type	_ZNKSt17basic_string_viewIcSt11char_traitsIcEE4sizeEv, @function
_ZNKSt17basic_string_viewIcSt11char_traitsIcEE4sizeEv:
.LFB3483:
	.cfi_startproc
	pushq	%rbp
	.cfi_def_cfa_offset 16
	.cfi_offset 6, -16
	movq	%rsp, %rbp
	.cfi_def_cfa_register 6
	movq	%rdi, -8(%rbp)
	movq	-8(%rbp), %rax
	movq	(%rax), %rax
	popq	%rbp
	.cfi_def_cfa 7, 8
	ret
	.cfi_endproc
.LFE3483:
	.size	_ZNKSt17basic_string_viewIcSt11char_traitsIcEE4sizeEv, .-_ZNKSt17basic_string_viewIcSt11char_traitsIcEE4sizeEv
	.section	.text._ZNSt8__format16_Optional_localeC2ERKSt6locale,"axG",@progbits,_ZNSt8__format16_Optional_localeC5ERKSt6locale,comdat
	.align 2
	.weak	_ZNSt8__format16_Optional_localeC2ERKSt6locale
	.type	_ZNSt8__format16_Optional_localeC2ERKSt6locale, @function
_ZNSt8__format16_Optional_localeC2ERKSt6locale:
.LFB3494:
	.cfi_startproc
	pushq	%rbp
	.cfi_def_cfa_offset 16
	.cfi_offset 6, -16
	movq	%rsp, %rbp
	.cfi_def_cfa_register 6
	subq	$16, %rsp
	movq	%rdi, -8(%rbp)
	movq	%rsi, -16(%rbp)
	movq	-8(%rbp), %rax
	movq	-16(%rbp), %rdx
	movq	%rdx, %rsi
	movq	%rax, %rdi
	call	_ZNSt6localeC1ERKS_
	movq	-8(%rbp), %rax
	movb	$1, 8(%rax)
	nop
	leave
	.cfi_def_cfa 7, 8
	ret
	.cfi_endproc
.LFE3494:
	.size	_ZNSt8__format16_Optional_localeC2ERKSt6locale, .-_ZNSt8__format16_Optional_localeC2ERKSt6locale
	.weak	_ZNSt8__format16_Optional_localeC1ERKSt6locale
	.set	_ZNSt8__format16_Optional_localeC1ERKSt6locale,_ZNSt8__format16_Optional_localeC2ERKSt6locale
	.section	.text._ZNSt8__format16_Optional_localeD2Ev,"axG",@progbits,_ZNSt8__format16_Optional_localeD5Ev,comdat
	.align 2
	.weak	_ZNSt8__format16_Optional_localeD2Ev
	.type	_ZNSt8__format16_Optional_localeD2Ev, @function
_ZNSt8__format16_Optional_localeD2Ev:
.LFB3501:
	.cfi_startproc
	pushq	%rbp
	.cfi_def_cfa_offset 16
	.cfi_offset 6, -16
	movq	%rsp, %rbp
	.cfi_def_cfa_register 6
	subq	$16, %rsp
	movq	%rdi, -8(%rbp)
	movq	-8(%rbp), %rax
	movzbl	8(%rax), %eax
	testb	%al, %al
	je	.L175
	movq	-8(%rbp), %rax
	movq	%rax, %rdi
	call	_ZNSt6localeD1Ev
.L175:
	nop
	leave
	.cfi_def_cfa 7, 8
	ret
	.cfi_endproc
.LFE3501:
	.size	_ZNSt8__format16_Optional_localeD2Ev, .-_ZNSt8__format16_Optional_localeD2Ev
	.weak	_ZNSt8__format16_Optional_localeD1Ev
	.set	_ZNSt8__format16_Optional_localeD1Ev,_ZNSt8__format16_Optional_localeD2Ev
	.section	.text._ZNSt8__format16_Optional_locale5valueEv,"axG",@progbits,_ZNSt8__format16_Optional_locale5valueEv,comdat
	.align 2
	.weak	_ZNSt8__format16_Optional_locale5valueEv
	.type	_ZNSt8__format16_Optional_locale5valueEv, @function
_ZNSt8__format16_Optional_locale5valueEv:
.LFB3504:
	.cfi_startproc
	pushq	%rbp
	.cfi_def_cfa_offset 16
	.cfi_offset 6, -16
	movq	%rsp, %rbp
	.cfi_def_cfa_register 6
	subq	$16, %rsp
	movq	%rdi, -8(%rbp)
	movq	-8(%rbp), %rax
	movzbl	8(%rax), %eax
	xorl	$1, %eax
	testb	%al, %al
	je	.L177
	movq	-8(%rbp), %rax
	movq	%rax, %rdi
	call	_ZSt12construct_atISt6localeJEQaant20is_unbounded_array_vIT_ErqXgsnwcvPvLi0E_S1_pispcl7declvalIT0_EEEEEPS1_S4_DpOS3_
	movq	-8(%rbp), %rax
	movb	$1, 8(%rax)
.L177:
	movq	-8(%rbp), %rax
	leave
	.cfi_def_cfa 7, 8
	ret
	.cfi_endproc
.LFE3504:
	.size	_ZNSt8__format16_Optional_locale5valueEv, .-_ZNSt8__format16_Optional_locale5valueEv
	.section	.text._ZNSt8__format9_Seq_sinkINSt7__cxx1112basic_stringIcSt11char_traitsIcESaIcEEEED2Ev,"axG",@progbits,_ZNSt8__format9_Seq_sinkINSt7__cxx1112basic_stringIcSt11char_traitsIcESaIcEEEED5Ev,comdat
	.align 2
	.weak	_ZNSt8__format9_Seq_sinkINSt7__cxx1112basic_stringIcSt11char_traitsIcESaIcEEEED2Ev
	.type	_ZNSt8__format9_Seq_sinkINSt7__cxx1112basic_stringIcSt11char_traitsIcESaIcEEEED2Ev, @function
_ZNSt8__format9_Seq_sinkINSt7__cxx1112basic_stringIcSt11char_traitsIcESaIcEEEED2Ev:
.LFB3690:
	.cfi_startproc
	pushq	%rbp
	.cfi_def_cfa_offset 16
	.cfi_offset 6, -16
	movq	%rsp, %rbp
	.cfi_def_cfa_register 6
	subq	$16, %rsp
	movq	%rdi, -8(%rbp)
	movl	$_ZTVNSt8__format9_Seq_sinkINSt7__cxx1112basic_stringIcSt11char_traitsIcESaIcEEEEE+16, %edx
	movq	-8(%rbp), %rax
	movq	%rdx, (%rax)
	movq	-8(%rbp), %rax
	addq	$288, %rax
	movq	%rax, %rdi
	call	_ZNSt7__cxx1112basic_stringIcSt11char_traitsIcESaIcEED1Ev
	nop
	leave
	.cfi_def_cfa 7, 8
	ret
	.cfi_endproc
.LFE3690:
	.size	_ZNSt8__format9_Seq_sinkINSt7__cxx1112basic_stringIcSt11char_traitsIcESaIcEEEED2Ev, .-_ZNSt8__format9_Seq_sinkINSt7__cxx1112basic_stringIcSt11char_traitsIcESaIcEEEED2Ev
	.weak	_ZNSt8__format9_Seq_sinkINSt7__cxx1112basic_stringIcSt11char_traitsIcESaIcEEEED1Ev
	.set	_ZNSt8__format9_Seq_sinkINSt7__cxx1112basic_stringIcSt11char_traitsIcESaIcEEEED1Ev,_ZNSt8__format9_Seq_sinkINSt7__cxx1112basic_stringIcSt11char_traitsIcESaIcEEEED2Ev
	.section	.text._ZNKSt4spanIcLm18446744073709551615EE4dataEv,"axG",@progbits,_ZNKSt4spanIcLm18446744073709551615EE4dataEv,comdat
	.align 2
	.weak	_ZNKSt4spanIcLm18446744073709551615EE4dataEv
	.type	_ZNKSt4spanIcLm18446744073709551615EE4dataEv, @function
_ZNKSt4spanIcLm18446744073709551615EE4dataEv:
.LFB3767:
	.cfi_startproc
	pushq	%rbp
	.cfi_def_cfa_offset 16
	.cfi_offset 6, -16
	movq	%rsp, %rbp
	.cfi_def_cfa_register 6
	movq	%rdi, -8(%rbp)
	movq	-8(%rbp), %rax
	movq	(%rax), %rax
	popq	%rbp
	.cfi_def_cfa 7, 8
	ret
	.cfi_endproc
.LFE3767:
	.size	_ZNKSt4spanIcLm18446744073709551615EE4dataEv, .-_ZNKSt4spanIcLm18446744073709551615EE4dataEv
	.section	.text._ZNKSt4spanIcLm18446744073709551615EE4sizeEv,"axG",@progbits,_ZNKSt4spanIcLm18446744073709551615EE4sizeEv,comdat
	.align 2
	.weak	_ZNKSt4spanIcLm18446744073709551615EE4sizeEv
	.type	_ZNKSt4spanIcLm18446744073709551615EE4sizeEv, @function
_ZNKSt4spanIcLm18446744073709551615EE4sizeEv:
.LFB3768:
	.cfi_startproc
	pushq	%rbp
	.cfi_def_cfa_offset 16
	.cfi_offset 6, -16
	movq	%rsp, %rbp
	.cfi_def_cfa_register 6
	movq	%rdi, -24(%rbp)
	movq	-24(%rbp), %rax
	addq	$8, %rax
	movq	%rax, -8(%rbp)
	movq	-8(%rbp), %rax
	movq	(%rax), %rax
	popq	%rbp
	.cfi_def_cfa 7, 8
	ret
	.cfi_endproc
.LFE3768:
	.size	_ZNKSt4spanIcLm18446744073709551615EE4sizeEv, .-_ZNKSt4spanIcLm18446744073709551615EE4sizeEv
	.section	.text._ZSt17vprint_nonunicodeP8_IO_FILESt17basic_string_viewIcSt11char_traitsIcEESt17basic_format_argsISt20basic_format_contextINSt8__format10_Sink_iterIcEEcEE,"axG",@progbits,_ZSt17vprint_nonunicodeP8_IO_FILESt17basic_string_viewIcSt11char_traitsIcEESt17basic_format_argsISt20basic_format_contextINSt8__format10_Sink_iterIcEEcEE,comdat
	.weak	_ZSt17vprint_nonunicodeP8_IO_FILESt17basic_string_viewIcSt11char_traitsIcEESt17basic_format_argsISt20basic_format_contextINSt8__format10_Sink_iterIcEEcEE
	.type	_ZSt17vprint_nonunicodeP8_IO_FILESt17basic_string_viewIcSt11char_traitsIcEESt17basic_format_argsISt20basic_format_contextINSt8__format10_Sink_iterIcEEcEE, @function
_ZSt17vprint_nonunicodeP8_IO_FILESt17basic_string_viewIcSt11char_traitsIcEESt17basic_format_argsISt20basic_format_contextINSt8__format10_Sink_iterIcEEcEE:
.LFB3766:
	.cfi_startproc
	.cfi_personality 0x3,__gxx_personality_v0
	.cfi_lsda 0x3,.LLSDA3766
	pushq	%rbp
	.cfi_def_cfa_offset 16
	.cfi_offset 6, -16
	movq	%rsp, %rbp
	.cfi_def_cfa_register 6
	pushq	%rbx
	subq	$536, %rsp
	.cfi_offset 3, -24
	movq	%rdi, -504(%rbp)
	movq	%rsi, %rax
	movq	%rdx, %rsi
	movq	%rax, %rax
	movl	$0, %edx
	movq	%rsi, %rdx
	movq	%rax, -528(%rbp)
	movq	%rdx, -520(%rbp)
	movq	%rcx, %rax
	movq	%r8, %rcx
	movq	%rax, %rax
	movl	$0, %edx
	movq	%rcx, %rdx
	movq	%rax, -544(%rbp)
	movq	%rdx, -536(%rbp)
	leaq	-416(%rbp), %rax
	movq	%rax, -48(%rbp)
	movq	-48(%rbp), %rbx
	movq	-48(%rbp), %rax
	leaq	32(%rax), %rdx
	leaq	-80(%rbp), %rax
	movq	%rdx, %rsi
	movq	%rax, %rdi
	call	_ZNSt4spanIcLm18446744073709551615EEC1ILm256EEERAT__c
	movq	%rbx, -56(%rbp)
	movq	-80(%rbp), %rax
	movq	-72(%rbp), %rdx
	movq	%rax, -448(%rbp)
	movq	%rdx, -440(%rbp)
	movl	$_ZTVNSt8__format5_SinkIcEE+16, %edx
	movq	-56(%rbp), %rax
	movq	%rdx, (%rax)
	movq	-56(%rbp), %rcx
	movq	-448(%rbp), %rax
	movq	-440(%rbp), %rdx
	movq	%rax, 8(%rcx)
	movq	%rdx, 16(%rcx)
	movq	-56(%rbp), %rbx
	leaq	-448(%rbp), %rax
	movq	%rax, %rdi
	call	_ZNKSt4spanIcLm18446744073709551615EE5beginEv
	movq	%rax, 24(%rbx)
	nop
	movl	$_ZTVNSt8__format9_Buf_sinkIcEE+16, %edx
	movq	-48(%rbp), %rax
	movq	%rdx, (%rax)
	nop
	movl	$_ZTVNSt8__format9_Seq_sinkINSt7__cxx1112basic_stringIcSt11char_traitsIcESaIcEEEEE+16, %eax
	movq	%rax, -416(%rbp)
	leaq	-416(%rbp), %rax
	addq	$288, %rax
	movq	%rax, %rdi
	call	_ZNSt7__cxx1112basic_stringIcSt11char_traitsIcESaIcEEC1EvQ26is_default_constructible_vIT1_E
	nop
	leaq	-416(%rbp), %rax
	movq	%rax, -24(%rbp)
	movq	-24(%rbp), %rax
	movq	%rax, -32(%rbp)
	movq	-32(%rbp), %rax
	movq	%rax, -40(%rbp)
	movq	-40(%rbp), %rax
	nop
	movq	%rax, -88(%rbp)
	nop
	movq	-88(%rbp), %rax
	movq	%rax, -456(%rbp)
	movq	-528(%rbp), %rax
	movq	-520(%rbp), %rdx
	movq	%rax, -480(%rbp)
	movq	%rdx, -472(%rbp)
	movq	-544(%rbp), %rax
	movq	-536(%rbp), %rdx
	movq	%rax, -496(%rbp)
	movq	%rdx, -488(%rbp)
	leaq	-456(%rbp), %rax
	leaq	-496(%rbp), %rcx
	movq	-480(%rbp), %rsi
	movq	-472(%rbp), %rdx
	movq	(%rax), %rax
	movl	$0, %r8d
	movq	%rax, %rdi
.LEHB2:
	call	_ZNSt8__format15__do_vformat_toINS_10_Sink_iterIcEEcSt20basic_format_contextIS2_cEEET_S5_St17basic_string_viewIT0_St11char_traitsIS7_EERKSt17basic_format_argsIT1_EPKSt6locale
	nop
	leaq	-416(%rbp), %rax
	movq	%rax, %rdi
	call	_ZNSt8__format9_Seq_sinkINSt7__cxx1112basic_stringIcSt11char_traitsIcESaIcEEEE4viewEv
	movq	%rax, -432(%rbp)
	movq	%rdx, -424(%rbp)
	leaq	-432(%rbp), %rax
	movq	%rax, %rdi
	call	_ZNKSt4spanIcLm18446744073709551615EE4sizeEv
	movq	%rax, %rbx
	leaq	-432(%rbp), %rax
	movq	%rax, %rdi
	call	_ZNKSt4spanIcLm18446744073709551615EE4dataEv
	movq	%rax, %rdi
	movq	-504(%rbp), %rax
	movq	%rax, %rcx
	movq	%rbx, %rdx
	movl	$1, %esi
	call	fwrite
	movq	%rax, %rbx
	leaq	-432(%rbp), %rax
	movq	%rax, %rdi
	call	_ZNKSt4spanIcLm18446744073709551615EE4sizeEv
	cmpq	%rax, %rbx
	setne	%al
	testb	%al, %al
	je	.L191
	movl	$5, %edi
	call	_ZSt20__throw_system_errori
.LEHE2:
.L191:
	leaq	-416(%rbp), %rax
	movq	%rax, %rdi
	call	_ZNSt8__format9_Seq_sinkINSt7__cxx1112basic_stringIcSt11char_traitsIcESaIcEEEED1Ev
	jmp	.L194
.L193:
	movq	%rax, %rbx
	leaq	-416(%rbp), %rax
	movq	%rax, %rdi
	call	_ZNSt8__format9_Seq_sinkINSt7__cxx1112basic_stringIcSt11char_traitsIcESaIcEEEED1Ev
	movq	%rbx, %rax
	movq	%rax, %rdi
.LEHB3:
	call	_Unwind_Resume
.LEHE3:
.L194:
	movq	-8(%rbp), %rbx
	leave
	.cfi_def_cfa 7, 8
	ret
	.cfi_endproc
.LFE3766:
	.section	.gcc_except_table._ZSt17vprint_nonunicodeP8_IO_FILESt17basic_string_viewIcSt11char_traitsIcEESt17basic_format_argsISt20basic_format_contextINSt8__format10_Sink_iterIcEEcEE,"aG",@progbits,_ZSt17vprint_nonunicodeP8_IO_FILESt17basic_string_viewIcSt11char_traitsIcEESt17basic_format_argsISt20basic_format_contextINSt8__format10_Sink_iterIcEEcEE,comdat
.LLSDA3766:
	.byte	0xff
	.byte	0xff
	.byte	0x1
	.uleb128 .LLSDACSE3766-.LLSDACSB3766
.LLSDACSB3766:
	.uleb128 .LEHB2-.LFB3766
	.uleb128 .LEHE2-.LEHB2
	.uleb128 .L193-.LFB3766
	.uleb128 0
	.uleb128 .LEHB3-.LFB3766
	.uleb128 .LEHE3-.LEHB3
	.uleb128 0
	.uleb128 0
.LLSDACSE3766:
	.section	.text._ZSt17vprint_nonunicodeP8_IO_FILESt17basic_string_viewIcSt11char_traitsIcEESt17basic_format_argsISt20basic_format_contextINSt8__format10_Sink_iterIcEEcEE,"axG",@progbits,_ZSt17vprint_nonunicodeP8_IO_FILESt17basic_string_viewIcSt11char_traitsIcEESt17basic_format_argsISt20basic_format_contextINSt8__format10_Sink_iterIcEEcEE,comdat
	.size	_ZSt17vprint_nonunicodeP8_IO_FILESt17basic_string_viewIcSt11char_traitsIcEESt17basic_format_argsISt20basic_format_contextINSt8__format10_Sink_iterIcEEcEE, .-_ZSt17vprint_nonunicodeP8_IO_FILESt17basic_string_viewIcSt11char_traitsIcEESt17basic_format_argsISt20basic_format_contextINSt8__format10_Sink_iterIcEEcEE
	.section	.text._ZSt14vprint_unicodeP8_IO_FILESt17basic_string_viewIcSt11char_traitsIcEESt17basic_format_argsISt20basic_format_contextINSt8__format10_Sink_iterIcEEcEE,"axG",@progbits,_ZSt14vprint_unicodeP8_IO_FILESt17basic_string_viewIcSt11char_traitsIcEESt17basic_format_argsISt20basic_format_contextINSt8__format10_Sink_iterIcEEcEE,comdat
	.weak	_ZSt14vprint_unicodeP8_IO_FILESt17basic_string_viewIcSt11char_traitsIcEESt17basic_format_argsISt20basic_format_contextINSt8__format10_Sink_iterIcEEcEE
	.type	_ZSt14vprint_unicodeP8_IO_FILESt17basic_string_viewIcSt11char_traitsIcEESt17basic_format_argsISt20basic_format_contextINSt8__format10_Sink_iterIcEEcEE, @function
_ZSt14vprint_unicodeP8_IO_FILESt17basic_string_viewIcSt11char_traitsIcEESt17basic_format_argsISt20basic_format_contextINSt8__format10_Sink_iterIcEEcEE:
.LFB3769:
	.cfi_startproc
	pushq	%rbp
	.cfi_def_cfa_offset 16
	.cfi_offset 6, -16
	movq	%rsp, %rbp
	.cfi_def_cfa_register 6
	subq	$48, %rsp
	movq	%rdi, -8(%rbp)
	movq	%rsi, %rax
	movq	%rdx, %rsi
	movq	%rax, %rax
	movl	$0, %edx
	movq	%rsi, %rdx
	movq	%rax, -32(%rbp)
	movq	%rdx, -24(%rbp)
	movq	%rcx, %rax
	movq	%r8, %rcx
	movq	%rax, %rax
	movl	$0, %edx
	movq	%rcx, %rdx
	movq	%rax, -48(%rbp)
	movq	%rdx, -40(%rbp)
	movq	-48(%rbp), %rcx
	movq	-40(%rbp), %rdi
	movq	-32(%rbp), %rsi
	movq	-24(%rbp), %rdx
	movq	-8(%rbp), %rax
	movq	%rdi, %r8
	movq	%rax, %rdi
	call	_ZSt17vprint_nonunicodeP8_IO_FILESt17basic_string_viewIcSt11char_traitsIcEESt17basic_format_argsISt20basic_format_contextINSt8__format10_Sink_iterIcEEcEE
	nop
	leave
	.cfi_def_cfa 7, 8
	ret
	.cfi_endproc
.LFE3769:
	.size	_ZSt14vprint_unicodeP8_IO_FILESt17basic_string_viewIcSt11char_traitsIcEESt17basic_format_argsISt20basic_format_contextINSt8__format10_Sink_iterIcEEcEE, .-_ZSt14vprint_unicodeP8_IO_FILESt17basic_string_viewIcSt11char_traitsIcEESt17basic_format_argsISt20basic_format_contextINSt8__format10_Sink_iterIcEEcEE
	.section	.text._ZNSt17basic_string_viewIcSt11char_traitsIcEEC2EPKc,"axG",@progbits,_ZNSt17basic_string_viewIcSt11char_traitsIcEEC5EPKc,comdat
	.align 2
	.weak	_ZNSt17basic_string_viewIcSt11char_traitsIcEEC2EPKc
	.type	_ZNSt17basic_string_viewIcSt11char_traitsIcEEC2EPKc, @function
_ZNSt17basic_string_viewIcSt11char_traitsIcEEC2EPKc:
.LFB4796:
	.cfi_startproc
	.cfi_personality 0x3,__gxx_personality_v0
	.cfi_lsda 0x3,.LLSDA4796
	pushq	%rbp
	.cfi_def_cfa_offset 16
	.cfi_offset 6, -16
	movq	%rsp, %rbp
	.cfi_def_cfa_register 6
	subq	$16, %rsp
	movq	%rdi, -8(%rbp)
	movq	%rsi, -16(%rbp)
	movq	-16(%rbp), %rax
	movq	%rax, %rdi
	call	_ZNSt11char_traitsIcE6lengthEPKc
	movq	-8(%rbp), %rdx
	movq	%rax, (%rdx)
	movq	-8(%rbp), %rax
	movq	-16(%rbp), %rdx
	movq	%rdx, 8(%rax)
	nop
	leave
	.cfi_def_cfa 7, 8
	ret
	.cfi_endproc
.LFE4796:
	.section	.gcc_except_table._ZNSt17basic_string_viewIcSt11char_traitsIcEEC2EPKc,"aG",@progbits,_ZNSt17basic_string_viewIcSt11char_traitsIcEEC5EPKc,comdat
.LLSDA4796:
	.byte	0xff
	.byte	0xff
	.byte	0x1
	.uleb128 .LLSDACSE4796-.LLSDACSB4796
.LLSDACSB4796:
.LLSDACSE4796:
	.section	.text._ZNSt17basic_string_viewIcSt11char_traitsIcEEC2EPKc,"axG",@progbits,_ZNSt17basic_string_viewIcSt11char_traitsIcEEC5EPKc,comdat
	.size	_ZNSt17basic_string_viewIcSt11char_traitsIcEEC2EPKc, .-_ZNSt17basic_string_viewIcSt11char_traitsIcEEC2EPKc
	.weak	_ZNSt17basic_string_viewIcSt11char_traitsIcEEC1EPKc
	.set	_ZNSt17basic_string_viewIcSt11char_traitsIcEEC1EPKc,_ZNSt17basic_string_viewIcSt11char_traitsIcEEC2EPKc
	.section	.text._ZN9__gnu_cxx11char_traitsIcE6lengthEPKc,"axG",@progbits,_ZN9__gnu_cxx11char_traitsIcE6lengthEPKc,comdat
	.align 2
	.weak	_ZN9__gnu_cxx11char_traitsIcE6lengthEPKc
	.type	_ZN9__gnu_cxx11char_traitsIcE6lengthEPKc, @function
_ZN9__gnu_cxx11char_traitsIcE6lengthEPKc:
.LFB4798:
	.cfi_startproc
	pushq	%rbp
	.cfi_def_cfa_offset 16
	.cfi_offset 6, -16
	movq	%rsp, %rbp
	.cfi_def_cfa_register 6
	subq	$32, %rsp
	movq	%rdi, -24(%rbp)
	movq	$0, -8(%rbp)
	jmp	.L198
.L199:
	addq	$1, -8(%rbp)
.L198:
	movb	$0, -9(%rbp)
	movq	-24(%rbp), %rdx
	movq	-8(%rbp), %rax
	addq	%rax, %rdx
	leaq	-9(%rbp), %rax
	movq	%rax, %rsi
	movq	%rdx, %rdi
	call	_ZN9__gnu_cxx11char_traitsIcE2eqERKcS3_
	xorl	$1, %eax
	testb	%al, %al
	jne	.L199
	movq	-8(%rbp), %rax
	leave
	.cfi_def_cfa 7, 8
	ret
	.cfi_endproc
.LFE4798:
	.size	_ZN9__gnu_cxx11char_traitsIcE6lengthEPKc, .-_ZN9__gnu_cxx11char_traitsIcE6lengthEPKc
	.section	.text._ZN9__gnu_cxx11char_traitsIcE2eqERKcS3_,"axG",@progbits,_ZN9__gnu_cxx11char_traitsIcE2eqERKcS3_,comdat
	.weak	_ZN9__gnu_cxx11char_traitsIcE2eqERKcS3_
	.type	_ZN9__gnu_cxx11char_traitsIcE2eqERKcS3_, @function
_ZN9__gnu_cxx11char_traitsIcE2eqERKcS3_:
.LFB4799:
	.cfi_startproc
	pushq	%rbp
	.cfi_def_cfa_offset 16
	.cfi_offset 6, -16
	movq	%rsp, %rbp
	.cfi_def_cfa_register 6
	movq	%rdi, -8(%rbp)
	movq	%rsi, -16(%rbp)
	movq	-8(%rbp), %rax
	movzbl	(%rax), %edx
	movq	-16(%rbp), %rax
	movzbl	(%rax), %eax
	cmpb	%al, %dl
	sete	%al
	popq	%rbp
	.cfi_def_cfa 7, 8
	ret
	.cfi_endproc
.LFE4799:
	.size	_ZN9__gnu_cxx11char_traitsIcE2eqERKcS3_, .-_ZN9__gnu_cxx11char_traitsIcE2eqERKcS3_
	.section	.text._ZNSt8__format8_ScannerIcE14_Parse_contextCI2St26basic_format_parse_contextIcEESt17basic_string_viewIcSt11char_traitsIcEEm,"axG",@progbits,_ZNSt8__format8_ScannerIcE14_Parse_contextCI5St26basic_format_parse_contextIcEESt17basic_string_viewIcSt11char_traitsIcEEm,comdat
	.align 2
	.weak	_ZNSt8__format8_ScannerIcE14_Parse_contextCI2St26basic_format_parse_contextIcEESt17basic_string_viewIcSt11char_traitsIcEEm
	.type	_ZNSt8__format8_ScannerIcE14_Parse_contextCI2St26basic_format_parse_contextIcEESt17basic_string_viewIcSt11char_traitsIcEEm, @function
_ZNSt8__format8_ScannerIcE14_Parse_contextCI2St26basic_format_parse_contextIcEESt17basic_string_viewIcSt11char_traitsIcEEm:
.LFB4805:
	.cfi_startproc
	pushq	%rbp
	.cfi_def_cfa_offset 16
	.cfi_offset 6, -16
	movq	%rsp, %rbp
	.cfi_def_cfa_register 6
	subq	$32, %rsp
	movq	%rdi, -8(%rbp)
	movq	%rsi, %rax
	movq	%rdx, %rsi
	movq	%rax, %rax
	movl	$0, %edx
	movq	%rsi, %rdx
	movq	%rax, -32(%rbp)
	movq	%rdx, -24(%rbp)
	movq	%rcx, -16(%rbp)
	movq	-8(%rbp), %rax
	movq	-16(%rbp), %rcx
	movq	-32(%rbp), %rsi
	movq	-24(%rbp), %rdx
	movq	%rax, %rdi
	call	_ZNSt26basic_format_parse_contextIcEC2ESt17basic_string_viewIcSt11char_traitsIcEEm
	movq	-8(%rbp), %rax
	movq	$0, 40(%rax)
	nop
	leave
	.cfi_def_cfa 7, 8
	ret
	.cfi_endproc
.LFE4805:
	.size	_ZNSt8__format8_ScannerIcE14_Parse_contextCI2St26basic_format_parse_contextIcEESt17basic_string_viewIcSt11char_traitsIcEEm, .-_ZNSt8__format8_ScannerIcE14_Parse_contextCI2St26basic_format_parse_contextIcEESt17basic_string_viewIcSt11char_traitsIcEEm
	.weak	_ZNSt8__format8_ScannerIcE14_Parse_contextCI1St26basic_format_parse_contextIcEESt17basic_string_viewIcSt11char_traitsIcEEm
	.set	_ZNSt8__format8_ScannerIcE14_Parse_contextCI1St26basic_format_parse_contextIcEESt17basic_string_viewIcSt11char_traitsIcEEm,_ZNSt8__format8_ScannerIcE14_Parse_contextCI2St26basic_format_parse_contextIcEESt17basic_string_viewIcSt11char_traitsIcEEm
	.section	.text._ZNSt8__format8_ScannerIcEC2ESt17basic_string_viewIcSt11char_traitsIcEEm,"axG",@progbits,_ZNSt8__format8_ScannerIcEC5ESt17basic_string_viewIcSt11char_traitsIcEEm,comdat
	.align 2
	.weak	_ZNSt8__format8_ScannerIcEC2ESt17basic_string_viewIcSt11char_traitsIcEEm
	.type	_ZNSt8__format8_ScannerIcEC2ESt17basic_string_viewIcSt11char_traitsIcEEm, @function
_ZNSt8__format8_ScannerIcEC2ESt17basic_string_viewIcSt11char_traitsIcEEm:
.LFB4807:
	.cfi_startproc
	pushq	%rbp
	.cfi_def_cfa_offset 16
	.cfi_offset 6, -16
	movq	%rsp, %rbp
	.cfi_def_cfa_register 6
	subq	$32, %rsp
	movq	%rdi, -8(%rbp)
	movq	%rsi, %rax
	movq	%rdx, %rsi
	movq	%rax, %rax
	movl	$0, %edx
	movq	%rsi, %rdx
	movq	%rax, -32(%rbp)
	movq	%rdx, -24(%rbp)
	movq	%rcx, -16(%rbp)
	movl	$_ZTVNSt8__format8_ScannerIcEE+16, %edx
	movq	-8(%rbp), %rax
	movq	%rdx, (%rax)
	movq	-8(%rbp), %rax
	leaq	8(%rax), %rdi
	movq	-16(%rbp), %rcx
	movq	-32(%rbp), %rdx
	movq	-24(%rbp), %rax
	movq	%rdx, %rsi
	movq	%rax, %rdx
	call	_ZNSt8__format8_ScannerIcE14_Parse_contextCI1St26basic_format_parse_contextIcEESt17basic_string_viewIcSt11char_traitsIcEEm
	nop
	leave
	.cfi_def_cfa 7, 8
	ret
	.cfi_endproc
.LFE4807:
	.size	_ZNSt8__format8_ScannerIcEC2ESt17basic_string_viewIcSt11char_traitsIcEEm, .-_ZNSt8__format8_ScannerIcEC2ESt17basic_string_viewIcSt11char_traitsIcEEm
	.weak	_ZNSt8__format8_ScannerIcEC1ESt17basic_string_viewIcSt11char_traitsIcEEm
	.set	_ZNSt8__format8_ScannerIcEC1ESt17basic_string_viewIcSt11char_traitsIcEEm,_ZNSt8__format8_ScannerIcEC2ESt17basic_string_viewIcSt11char_traitsIcEEm
	.section	.text._ZNSt26basic_format_parse_contextIcEC2ESt17basic_string_viewIcSt11char_traitsIcEEm,"axG",@progbits,_ZNSt26basic_format_parse_contextIcEC5ESt17basic_string_viewIcSt11char_traitsIcEEm,comdat
	.align 2
	.weak	_ZNSt26basic_format_parse_contextIcEC2ESt17basic_string_viewIcSt11char_traitsIcEEm
	.type	_ZNSt26basic_format_parse_contextIcEC2ESt17basic_string_viewIcSt11char_traitsIcEEm, @function
_ZNSt26basic_format_parse_contextIcEC2ESt17basic_string_viewIcSt11char_traitsIcEEm:
.LFB4810:
	.cfi_startproc
	pushq	%rbp
	.cfi_def_cfa_offset 16
	.cfi_offset 6, -16
	movq	%rsp, %rbp
	.cfi_def_cfa_register 6
	subq	$32, %rsp
	movq	%rdi, -8(%rbp)
	movq	%rsi, %rax
	movq	%rdx, %rsi
	movq	%rax, %rax
	movl	$0, %edx
	movq	%rsi, %rdx
	movq	%rax, -32(%rbp)
	movq	%rdx, -24(%rbp)
	movq	%rcx, -16(%rbp)
	leaq	-32(%rbp), %rax
	movq	%rax, %rdi
	call	_ZNKSt17basic_string_viewIcSt11char_traitsIcEE5beginEv
	movq	-8(%rbp), %rdx
	movq	%rax, (%rdx)
	leaq	-32(%rbp), %rax
	movq	%rax, %rdi
	call	_ZNKSt17basic_string_viewIcSt11char_traitsIcEE3endEv
	movq	-8(%rbp), %rdx
	movq	%rax, 8(%rdx)
	movq	-8(%rbp), %rax
	movl	$0, 16(%rax)
	movq	-8(%rbp), %rax
	movq	$0, 24(%rax)
	movq	-8(%rbp), %rax
	movq	-16(%rbp), %rdx
	movq	%rdx, 32(%rax)
	nop
	leave
	.cfi_def_cfa 7, 8
	ret
	.cfi_endproc
.LFE4810:
	.size	_ZNSt26basic_format_parse_contextIcEC2ESt17basic_string_viewIcSt11char_traitsIcEEm, .-_ZNSt26basic_format_parse_contextIcEC2ESt17basic_string_viewIcSt11char_traitsIcEEm
	.weak	_ZNSt26basic_format_parse_contextIcEC1ESt17basic_string_viewIcSt11char_traitsIcEEm
	.set	_ZNSt26basic_format_parse_contextIcEC1ESt17basic_string_viewIcSt11char_traitsIcEEm,_ZNSt26basic_format_parse_contextIcEC2ESt17basic_string_viewIcSt11char_traitsIcEEm
	.section	.text._ZNKSt17basic_string_viewIcSt11char_traitsIcEE5beginEv,"axG",@progbits,_ZNKSt17basic_string_viewIcSt11char_traitsIcEE5beginEv,comdat
	.align 2
	.weak	_ZNKSt17basic_string_viewIcSt11char_traitsIcEE5beginEv
	.type	_ZNKSt17basic_string_viewIcSt11char_traitsIcEE5beginEv, @function
_ZNKSt17basic_string_viewIcSt11char_traitsIcEE5beginEv:
.LFB4812:
	.cfi_startproc
	pushq	%rbp
	.cfi_def_cfa_offset 16
	.cfi_offset 6, -16
	movq	%rsp, %rbp
	.cfi_def_cfa_register 6
	movq	%rdi, -8(%rbp)
	movq	-8(%rbp), %rax
	movq	8(%rax), %rax
	popq	%rbp
	.cfi_def_cfa 7, 8
	ret
	.cfi_endproc
.LFE4812:
	.size	_ZNKSt17basic_string_viewIcSt11char_traitsIcEE5beginEv, .-_ZNKSt17basic_string_viewIcSt11char_traitsIcEE5beginEv
	.section	.text._ZNKSt17basic_string_viewIcSt11char_traitsIcEE3endEv,"axG",@progbits,_ZNKSt17basic_string_viewIcSt11char_traitsIcEE3endEv,comdat
	.align 2
	.weak	_ZNKSt17basic_string_viewIcSt11char_traitsIcEE3endEv
	.type	_ZNKSt17basic_string_viewIcSt11char_traitsIcEE3endEv, @function
_ZNKSt17basic_string_viewIcSt11char_traitsIcEE3endEv:
.LFB4813:
	.cfi_startproc
	pushq	%rbp
	.cfi_def_cfa_offset 16
	.cfi_offset 6, -16
	movq	%rsp, %rbp
	.cfi_def_cfa_register 6
	movq	%rdi, -8(%rbp)
	movq	-8(%rbp), %rax
	movq	8(%rax), %rdx
	movq	-8(%rbp), %rax
	movq	(%rax), %rax
	addq	%rdx, %rax
	popq	%rbp
	.cfi_def_cfa 7, 8
	ret
	.cfi_endproc
.LFE4813:
	.size	_ZNKSt17basic_string_viewIcSt11char_traitsIcEE3endEv, .-_ZNKSt17basic_string_viewIcSt11char_traitsIcEE3endEv
	.section	.rodata
.LC6:
	.string	"__pos < this->_M_len"
	.align 8
.LC7:
	.string	"constexpr const std::basic_string_view<_CharT, _Traits>::value_type& std::basic_string_view<_CharT, _Traits>::operator[](size_type) const [with _CharT = char; _Traits = std::char_traits<char>; const_reference = const char&; size_type = long unsigned int]"
	.align 8
.LC8:
	.string	"/usr/include/c++/15/string_view"
	.section	.text._ZNKSt17basic_string_viewIcSt11char_traitsIcEEixEm,"axG",@progbits,_ZNKSt17basic_string_viewIcSt11char_traitsIcEEixEm,comdat
	.align 2
	.weak	_ZNKSt17basic_string_viewIcSt11char_traitsIcEEixEm
	.type	_ZNKSt17basic_string_viewIcSt11char_traitsIcEEixEm, @function
_ZNKSt17basic_string_viewIcSt11char_traitsIcEEixEm:
.LFB4815:
	.cfi_startproc
	pushq	%rbp
	.cfi_def_cfa_offset 16
	.cfi_offset 6, -16
	movq	%rsp, %rbp
	.cfi_def_cfa_register 6
	subq	$16, %rsp
	movq	%rdi, -8(%rbp)
	movq	%rsi, -16(%rbp)
	movq	-8(%rbp), %rax
	movq	(%rax), %rax
	cmpq	%rax, -16(%rbp)
	setnb	%al
	movzbl	%al, %eax
	testq	%rax, %rax
	je	.L211
	movl	$.LC6, %ecx
	movl	$.LC7, %edx
	movl	$260, %esi
	movl	$.LC8, %edi
	call	_ZSt21__glibcxx_assert_failPKciS0_S0_
.L211:
	movq	-8(%rbp), %rax
	movq	8(%rax), %rdx
	movq	-16(%rbp), %rax
	addq	%rdx, %rax
	leave
	.cfi_def_cfa 7, 8
	ret
	.cfi_endproc
.LFE4815:
	.size	_ZNKSt17basic_string_viewIcSt11char_traitsIcEEixEm, .-_ZNKSt17basic_string_viewIcSt11char_traitsIcEEixEm
	.section	.text._ZNSt8__format8_ScannerIcE7_M_scanEv,"axG",@progbits,_ZNSt8__format8_ScannerIcE7_M_scanEv,comdat
	.align 2
	.weak	_ZNSt8__format8_ScannerIcE7_M_scanEv
	.type	_ZNSt8__format8_ScannerIcE7_M_scanEv, @function
_ZNSt8__format8_ScannerIcE7_M_scanEv:
.LFB4814:
	.cfi_startproc
	pushq	%rbp
	.cfi_def_cfa_offset 16
	.cfi_offset 6, -16
	movq	%rsp, %rbp
	.cfi_def_cfa_register 6
	pushq	%rbx
	subq	$104, %rsp
	.cfi_offset 3, -24
	movq	%rdi, -104(%rbp)
	movq	-104(%rbp), %rax
	movq	%rax, %rdi
	call	_ZNKSt8__format8_ScannerIcE10_M_fmt_strEv
	movq	%rax, -80(%rbp)
	movq	%rdx, -72(%rbp)
	leaq	-80(%rbp), %rax
	movq	%rax, %rdi
	call	_ZNKSt17basic_string_viewIcSt11char_traitsIcEE4sizeEv
	cmpq	$2, %rax
	jne	.L214
	leaq	-80(%rbp), %rax
	movl	$0, %esi
	movq	%rax, %rdi
	call	_ZNKSt17basic_string_viewIcSt11char_traitsIcEEixEm
	movzbl	(%rax), %eax
	cmpb	$123, %al
	jne	.L214
	leaq	-80(%rbp), %rax
	movl	$1, %esi
	movq	%rax, %rdi
	call	_ZNKSt17basic_string_viewIcSt11char_traitsIcEEixEm
	movzbl	(%rax), %eax
	cmpb	$125, %al
	jne	.L214
	movl	$1, %eax
	jmp	.L215
.L214:
	movl	$0, %eax
.L215:
	testb	%al, %al
	je	.L216
	movq	-104(%rbp), %rax
	leaq	8(%rax), %rbx
	movq	-104(%rbp), %rax
	movq	%rax, %rdi
	call	_ZNKSt8__format8_ScannerIcE5beginEv
	addq	$1, %rax
	movq	%rax, %rsi
	movq	%rbx, %rdi
	call	_ZNSt26basic_format_parse_contextIcE10advance_toEPKc
	movq	-104(%rbp), %rax
	movq	(%rax), %rax
	addq	$8, %rax
	movq	(%rax), %rbx
	movq	-104(%rbp), %rax
	addq	$8, %rax
	movq	%rax, %rdi
	call	_ZNSt26basic_format_parse_contextIcE11next_arg_idEv
	movq	%rax, %rdx
	movq	-104(%rbp), %rax
	movq	%rdx, %rsi
	movq	%rax, %rdi
	call	*%rbx
	jmp	.L213
.L216:
	leaq	-80(%rbp), %rax
	movl	$0, %edx
	movl	$123, %esi
	movq	%rax, %rdi
	call	_ZNKSt17basic_string_viewIcSt11char_traitsIcEE4findEcm
	movq	%rax, -24(%rbp)
	leaq	-80(%rbp), %rax
	movl	$0, %edx
	movl	$125, %esi
	movq	%rax, %rdi
	call	_ZNKSt17basic_string_viewIcSt11char_traitsIcEE4findEcm
	movq	%rax, -32(%rbp)
	jmp	.L218
.L236:
	movq	-24(%rbp), %rdx
	movq	-32(%rbp), %rax
	cmpq	%rax, %rdx
	je	.L219
	cmpq	%rax, %rdx
	jnb	.L220
	movb	$-1, -81(%rbp)
	jmp	.L221
.L220:
	movb	$1, -81(%rbp)
	jmp	.L221
.L219:
	movb	$0, -81(%rbp)
.L221:
	movzbl	-81(%rbp), %eax
	movl	%eax, %edi
	call	_ZSteqSt15strong_orderingNSt9__cmp_cat8__unspecE
	testb	%al, %al
	je	.L222
	movq	-104(%rbp), %rax
	movq	(%rax), %rax
	movq	(%rax), %rbx
	movq	-104(%rbp), %rax
	movq	%rax, %rdi
	call	_ZNKSt8__format8_ScannerIcE3endEv
	movq	%rax, %rdx
	movq	-104(%rbp), %rax
	movq	%rdx, %rsi
	movq	%rax, %rdi
	call	*%rbx
	movq	-104(%rbp), %rax
	leaq	8(%rax), %rbx
	movq	-104(%rbp), %rax
	movq	%rax, %rdi
	call	_ZNKSt8__format8_ScannerIcE3endEv
	movq	%rax, %rsi
	movq	%rbx, %rdi
	call	_ZNSt26basic_format_parse_contextIcE10advance_toEPKc
	jmp	.L213
.L222:
	movzbl	-81(%rbp), %eax
	movl	%eax, %edi
	call	_ZStltSt15strong_orderingNSt9__cmp_cat8__unspecE
	testb	%al, %al
	je	.L223
	movq	-24(%rbp), %rax
	leaq	1(%rax), %rbx
	leaq	-80(%rbp), %rax
	movq	%rax, %rdi
	call	_ZNKSt17basic_string_viewIcSt11char_traitsIcEE4sizeEv
	cmpq	%rax, %rbx
	je	.L224
	cmpq	$-1, -32(%rbp)
	jne	.L225
	movq	-24(%rbp), %rax
	leaq	1(%rax), %rdx
	leaq	-80(%rbp), %rax
	movq	%rdx, %rsi
	movq	%rax, %rdi
	call	_ZNKSt17basic_string_viewIcSt11char_traitsIcEEixEm
	movzbl	(%rax), %eax
	cmpb	$123, %al
	je	.L225
.L224:
	movl	$1, %eax
	jmp	.L226
.L225:
	movl	$0, %eax
.L226:
	testb	%al, %al
	je	.L227
	call	_ZNSt8__format39__unmatched_left_brace_in_format_stringEv
.L227:
	movq	-24(%rbp), %rax
	leaq	1(%rax), %rdx
	leaq	-80(%rbp), %rax
	movq	%rdx, %rsi
	movq	%rax, %rdi
	call	_ZNKSt17basic_string_viewIcSt11char_traitsIcEEixEm
	movzbl	(%rax), %eax
	cmpb	$123, %al
	sete	%al
	movb	%al, -41(%rbp)
	movq	-104(%rbp), %rax
	movq	%rax, %rdi
	call	_ZNKSt8__format8_ScannerIcE5beginEv
	movzbl	-41(%rbp), %ecx
	movq	-24(%rbp), %rdx
	addq	%rcx, %rdx
	addq	%rdx, %rax
	movq	%rax, -56(%rbp)
	movq	-104(%rbp), %rax
	movq	(%rax), %rax
	movq	(%rax), %rcx
	movq	-56(%rbp), %rdx
	movq	-104(%rbp), %rax
	movq	%rdx, %rsi
	movq	%rax, %rdi
	call	*%rcx
	movq	-104(%rbp), %rax
	addq	$8, %rax
	movq	-56(%rbp), %rdx
	addq	$1, %rdx
	movq	%rdx, %rsi
	movq	%rax, %rdi
	call	_ZNSt26basic_format_parse_contextIcE10advance_toEPKc
	movq	-104(%rbp), %rax
	movq	%rax, %rdi
	call	_ZNKSt8__format8_ScannerIcE10_M_fmt_strEv
	movq	%rax, -80(%rbp)
	movq	%rdx, -72(%rbp)
	cmpb	$0, -41(%rbp)
	je	.L228
	cmpq	$-1, -32(%rbp)
	je	.L229
	movq	-32(%rbp), %rax
	subq	-24(%rbp), %rax
	subq	$2, %rax
	movq	%rax, -32(%rbp)
.L229:
	leaq	-80(%rbp), %rax
	movl	$0, %edx
	movl	$123, %esi
	movq	%rax, %rdi
	call	_ZNKSt17basic_string_viewIcSt11char_traitsIcEE4findEcm
	movq	%rax, -24(%rbp)
	jmp	.L218
.L228:
	movq	-104(%rbp), %rax
	movq	%rax, %rdi
	call	_ZNSt8__format8_ScannerIcE23_M_on_replacement_fieldEv
	movq	-104(%rbp), %rax
	movq	%rax, %rdi
	call	_ZNKSt8__format8_ScannerIcE10_M_fmt_strEv
	movq	%rax, -80(%rbp)
	movq	%rdx, -72(%rbp)
	leaq	-80(%rbp), %rax
	movl	$0, %edx
	movl	$123, %esi
	movq	%rax, %rdi
	call	_ZNKSt17basic_string_viewIcSt11char_traitsIcEE4findEcm
	movq	%rax, -24(%rbp)
	leaq	-80(%rbp), %rax
	movl	$0, %edx
	movl	$125, %esi
	movq	%rax, %rdi
	call	_ZNKSt17basic_string_viewIcSt11char_traitsIcEE4findEcm
	movq	%rax, -32(%rbp)
	jmp	.L218
.L223:
	addq	$1, -32(%rbp)
	leaq	-80(%rbp), %rax
	movq	%rax, %rdi
	call	_ZNKSt17basic_string_viewIcSt11char_traitsIcEE4sizeEv
	cmpq	%rax, -32(%rbp)
	je	.L231
	movq	-32(%rbp), %rdx
	leaq	-80(%rbp), %rax
	movq	%rdx, %rsi
	movq	%rax, %rdi
	call	_ZNKSt17basic_string_viewIcSt11char_traitsIcEEixEm
	movzbl	(%rax), %eax
	cmpb	$125, %al
	je	.L232
.L231:
	movl	$1, %eax
	jmp	.L233
.L232:
	movl	$0, %eax
.L233:
	testb	%al, %al
	je	.L234
	call	_ZNSt8__format40__unmatched_right_brace_in_format_stringEv
.L234:
	movq	-104(%rbp), %rax
	movq	%rax, %rdi
	call	_ZNKSt8__format8_ScannerIcE5beginEv
	movq	-32(%rbp), %rdx
	addq	%rdx, %rax
	movq	%rax, -40(%rbp)
	movq	-104(%rbp), %rax
	movq	(%rax), %rax
	movq	(%rax), %rcx
	movq	-40(%rbp), %rdx
	movq	-104(%rbp), %rax
	movq	%rdx, %rsi
	movq	%rax, %rdi
	call	*%rcx
	movq	-104(%rbp), %rax
	addq	$8, %rax
	movq	-40(%rbp), %rdx
	addq	$1, %rdx
	movq	%rdx, %rsi
	movq	%rax, %rdi
	call	_ZNSt26basic_format_parse_contextIcE10advance_toEPKc
	movq	-104(%rbp), %rax
	movq	%rax, %rdi
	call	_ZNKSt8__format8_ScannerIcE10_M_fmt_strEv
	movq	%rax, -80(%rbp)
	movq	%rdx, -72(%rbp)
	cmpq	$-1, -24(%rbp)
	je	.L235
	movq	-24(%rbp), %rax
	subq	-32(%rbp), %rax
	subq	$1, %rax
	movq	%rax, -24(%rbp)
.L235:
	leaq	-80(%rbp), %rax
	movl	$0, %edx
	movl	$125, %esi
	movq	%rax, %rdi
	call	_ZNKSt17basic_string_viewIcSt11char_traitsIcEE4findEcm
	movq	%rax, -32(%rbp)
.L218:
	leaq	-80(%rbp), %rax
	movq	%rax, %rdi
	call	_ZNKSt17basic_string_viewIcSt11char_traitsIcEE4sizeEv
	testq	%rax, %rax
	setne	%al
	testb	%al, %al
	jne	.L236
.L213:
	movq	-8(%rbp), %rbx
	leave
	.cfi_def_cfa 7, 8
	ret
	.cfi_endproc
.LFE4814:
	.size	_ZNSt8__format8_ScannerIcE7_M_scanEv, .-_ZNSt8__format8_ScannerIcE7_M_scanEv
	.section	.text._ZNKSt8__format8_ScannerIcE10_M_fmt_strEv,"axG",@progbits,_ZNKSt8__format8_ScannerIcE10_M_fmt_strEv,comdat
	.align 2
	.weak	_ZNKSt8__format8_ScannerIcE10_M_fmt_strEv
	.type	_ZNKSt8__format8_ScannerIcE10_M_fmt_strEv, @function
_ZNKSt8__format8_ScannerIcE10_M_fmt_strEv:
.LFB4816:
	.cfi_startproc
	pushq	%rbp
	.cfi_def_cfa_offset 16
	.cfi_offset 6, -16
	movq	%rsp, %rbp
	.cfi_def_cfa_register 6
	pushq	%rbx
	subq	$40, %rsp
	.cfi_offset 3, -24
	movq	%rdi, -40(%rbp)
	movq	-40(%rbp), %rax
	movq	%rax, %rdi
	call	_ZNKSt8__format8_ScannerIcE5beginEv
	movq	%rax, %rbx
	movq	-40(%rbp), %rax
	movq	%rax, %rdi
	call	_ZNKSt8__format8_ScannerIcE3endEv
	movq	%rax, %rdx
	leaq	-32(%rbp), %rax
	movq	%rbx, %rsi
	movq	%rax, %rdi
	call	_ZNSt17basic_string_viewIcSt11char_traitsIcEEC1IPKcS5_EET_T0_
	movq	-32(%rbp), %rax
	movq	-24(%rbp), %rdx
	movq	-8(%rbp), %rbx
	leave
	.cfi_def_cfa 7, 8
	ret
	.cfi_endproc
.LFE4816:
	.size	_ZNKSt8__format8_ScannerIcE10_M_fmt_strEv, .-_ZNKSt8__format8_ScannerIcE10_M_fmt_strEv
	.section	.text._ZNKSt8__format8_ScannerIcE5beginEv,"axG",@progbits,_ZNKSt8__format8_ScannerIcE5beginEv,comdat
	.align 2
	.weak	_ZNKSt8__format8_ScannerIcE5beginEv
	.type	_ZNKSt8__format8_ScannerIcE5beginEv, @function
_ZNKSt8__format8_ScannerIcE5beginEv:
.LFB4818:
	.cfi_startproc
	pushq	%rbp
	.cfi_def_cfa_offset 16
	.cfi_offset 6, -16
	movq	%rsp, %rbp
	.cfi_def_cfa_register 6
	subq	$16, %rsp
	movq	%rdi, -8(%rbp)
	movq	-8(%rbp), %rax
	addq	$8, %rax
	movq	%rax, %rdi
	call	_ZNKSt26basic_format_parse_contextIcE5beginEv
	leave
	.cfi_def_cfa 7, 8
	ret
	.cfi_endproc
.LFE4818:
	.size	_ZNKSt8__format8_ScannerIcE5beginEv, .-_ZNKSt8__format8_ScannerIcE5beginEv
	.section	.text._ZNKSt26basic_format_parse_contextIcE5beginEv,"axG",@progbits,_ZNKSt26basic_format_parse_contextIcE5beginEv,comdat
	.align 2
	.weak	_ZNKSt26basic_format_parse_contextIcE5beginEv
	.type	_ZNKSt26basic_format_parse_contextIcE5beginEv, @function
_ZNKSt26basic_format_parse_contextIcE5beginEv:
.LFB4819:
	.cfi_startproc
	pushq	%rbp
	.cfi_def_cfa_offset 16
	.cfi_offset 6, -16
	movq	%rsp, %rbp
	.cfi_def_cfa_register 6
	movq	%rdi, -8(%rbp)
	movq	-8(%rbp), %rax
	movq	(%rax), %rax
	popq	%rbp
	.cfi_def_cfa 7, 8
	ret
	.cfi_endproc
.LFE4819:
	.size	_ZNKSt26basic_format_parse_contextIcE5beginEv, .-_ZNKSt26basic_format_parse_contextIcE5beginEv
	.section	.text._ZNKSt8__format8_ScannerIcE3endEv,"axG",@progbits,_ZNKSt8__format8_ScannerIcE3endEv,comdat
	.align 2
	.weak	_ZNKSt8__format8_ScannerIcE3endEv
	.type	_ZNKSt8__format8_ScannerIcE3endEv, @function
_ZNKSt8__format8_ScannerIcE3endEv:
.LFB4820:
	.cfi_startproc
	pushq	%rbp
	.cfi_def_cfa_offset 16
	.cfi_offset 6, -16
	movq	%rsp, %rbp
	.cfi_def_cfa_register 6
	subq	$16, %rsp
	movq	%rdi, -8(%rbp)
	movq	-8(%rbp), %rax
	addq	$8, %rax
	movq	%rax, %rdi
	call	_ZNKSt26basic_format_parse_contextIcE3endEv
	leave
	.cfi_def_cfa 7, 8
	ret
	.cfi_endproc
.LFE4820:
	.size	_ZNKSt8__format8_ScannerIcE3endEv, .-_ZNKSt8__format8_ScannerIcE3endEv
	.section	.text._ZNKSt26basic_format_parse_contextIcE3endEv,"axG",@progbits,_ZNKSt26basic_format_parse_contextIcE3endEv,comdat
	.align 2
	.weak	_ZNKSt26basic_format_parse_contextIcE3endEv
	.type	_ZNKSt26basic_format_parse_contextIcE3endEv, @function
_ZNKSt26basic_format_parse_contextIcE3endEv:
.LFB4821:
	.cfi_startproc
	pushq	%rbp
	.cfi_def_cfa_offset 16
	.cfi_offset 6, -16
	movq	%rsp, %rbp
	.cfi_def_cfa_register 6
	movq	%rdi, -8(%rbp)
	movq	-8(%rbp), %rax
	movq	8(%rax), %rax
	popq	%rbp
	.cfi_def_cfa 7, 8
	ret
	.cfi_endproc
.LFE4821:
	.size	_ZNKSt26basic_format_parse_contextIcE3endEv, .-_ZNKSt26basic_format_parse_contextIcE3endEv
	.section	.text._ZNSt17basic_string_viewIcSt11char_traitsIcEEC2IPKcS5_EET_T0_,"axG",@progbits,_ZNSt17basic_string_viewIcSt11char_traitsIcEEC5IPKcS5_EET_T0_,comdat
	.align 2
	.weak	_ZNSt17basic_string_viewIcSt11char_traitsIcEEC2IPKcS5_EET_T0_
	.type	_ZNSt17basic_string_viewIcSt11char_traitsIcEEC2IPKcS5_EET_T0_, @function
_ZNSt17basic_string_viewIcSt11char_traitsIcEEC2IPKcS5_EET_T0_:
.LFB4823:
	.cfi_startproc
	pushq	%rbp
	.cfi_def_cfa_offset 16
	.cfi_offset 6, -16
	movq	%rsp, %rbp
	.cfi_def_cfa_register 6
	movq	%rdi, -24(%rbp)
	movq	%rsi, -32(%rbp)
	movq	%rdx, -40(%rbp)
	movq	-40(%rbp), %rax
	subq	-32(%rbp), %rax
	movq	%rax, %rdx
	movq	-24(%rbp), %rax
	movq	%rdx, (%rax)
	movq	-32(%rbp), %rax
	movq	%rax, -8(%rbp)
	movq	-8(%rbp), %rdx
	movq	-24(%rbp), %rax
	movq	%rdx, 8(%rax)
	nop
	popq	%rbp
	.cfi_def_cfa 7, 8
	ret
	.cfi_endproc
.LFE4823:
	.size	_ZNSt17basic_string_viewIcSt11char_traitsIcEEC2IPKcS5_EET_T0_, .-_ZNSt17basic_string_viewIcSt11char_traitsIcEEC2IPKcS5_EET_T0_
	.weak	_ZNSt17basic_string_viewIcSt11char_traitsIcEEC1IPKcS5_EET_T0_
	.set	_ZNSt17basic_string_viewIcSt11char_traitsIcEEC1IPKcS5_EET_T0_,_ZNSt17basic_string_viewIcSt11char_traitsIcEEC2IPKcS5_EET_T0_
	.section	.text._ZNKSt17basic_string_viewIcSt11char_traitsIcEE4findEcm,"axG",@progbits,_ZNKSt17basic_string_viewIcSt11char_traitsIcEE4findEcm,comdat
	.align 2
	.weak	_ZNKSt17basic_string_viewIcSt11char_traitsIcEE4findEcm
	.type	_ZNKSt17basic_string_viewIcSt11char_traitsIcEE4findEcm, @function
_ZNKSt17basic_string_viewIcSt11char_traitsIcEE4findEcm:
.LFB4826:
	.cfi_startproc
	pushq	%rbp
	.cfi_def_cfa_offset 16
	.cfi_offset 6, -16
	movq	%rsp, %rbp
	.cfi_def_cfa_register 6
	subq	$64, %rsp
	movq	%rdi, -40(%rbp)
	movl	%esi, %eax
	movq	%rdx, -56(%rbp)
	movb	%al, -44(%rbp)
	movq	$-1, -8(%rbp)
	movq	-40(%rbp), %rax
	movq	(%rax), %rax
	cmpq	%rax, -56(%rbp)
	jnb	.L251
	movq	-40(%rbp), %rax
	movq	(%rax), %rax
	subq	-56(%rbp), %rax
	movq	%rax, -16(%rbp)
	movq	-40(%rbp), %rax
	movq	8(%rax), %rdx
	movq	-56(%rbp), %rax
	leaq	(%rdx,%rax), %rcx
	leaq	-44(%rbp), %rdx
	movq	-16(%rbp), %rax
	movq	%rax, %rsi
	movq	%rcx, %rdi
	call	_ZNSt11char_traitsIcE4findEPKcmRS1_
	movq	%rax, -24(%rbp)
	cmpq	$0, -24(%rbp)
	je	.L251
	movq	-40(%rbp), %rax
	movq	8(%rax), %rax
	movq	-24(%rbp), %rdx
	subq	%rax, %rdx
	movq	%rdx, -8(%rbp)
.L251:
	movq	-8(%rbp), %rax
	leave
	.cfi_def_cfa 7, 8
	ret
	.cfi_endproc
.LFE4826:
	.size	_ZNKSt17basic_string_viewIcSt11char_traitsIcEE4findEcm, .-_ZNKSt17basic_string_viewIcSt11char_traitsIcEE4findEcm
	.section	.text._ZN9__gnu_cxx11char_traitsIcE4findEPKcmRS2_,"axG",@progbits,_ZN9__gnu_cxx11char_traitsIcE4findEPKcmRS2_,comdat
	.align 2
	.weak	_ZN9__gnu_cxx11char_traitsIcE4findEPKcmRS2_
	.type	_ZN9__gnu_cxx11char_traitsIcE4findEPKcmRS2_, @function
_ZN9__gnu_cxx11char_traitsIcE4findEPKcmRS2_:
.LFB4827:
	.cfi_startproc
	pushq	%rbp
	.cfi_def_cfa_offset 16
	.cfi_offset 6, -16
	movq	%rsp, %rbp
	.cfi_def_cfa_register 6
	subq	$48, %rsp
	movq	%rdi, -24(%rbp)
	movq	%rsi, -32(%rbp)
	movq	%rdx, -40(%rbp)
	movq	$0, -8(%rbp)
	jmp	.L254
.L257:
	movq	-24(%rbp), %rdx
	movq	-8(%rbp), %rax
	addq	%rax, %rdx
	movq	-40(%rbp), %rax
	movq	%rax, %rsi
	movq	%rdx, %rdi
	call	_ZN9__gnu_cxx11char_traitsIcE2eqERKcS3_
	testb	%al, %al
	je	.L255
	movq	-24(%rbp), %rdx
	movq	-8(%rbp), %rax
	addq	%rdx, %rax
	jmp	.L256
.L255:
	addq	$1, -8(%rbp)
.L254:
	movq	-8(%rbp), %rax
	cmpq	-32(%rbp), %rax
	jb	.L257
	movl	$0, %eax
.L256:
	leave
	.cfi_def_cfa 7, 8
	ret
	.cfi_endproc
.LFE4827:
	.size	_ZN9__gnu_cxx11char_traitsIcE4findEPKcmRS2_, .-_ZN9__gnu_cxx11char_traitsIcE4findEPKcmRS2_
	.section	.text._ZNSt8__format8_ScannerIcE11_M_on_charsEPKc,"axG",@progbits,_ZNSt8__format8_ScannerIcE11_M_on_charsEPKc,comdat
	.align 2
	.weak	_ZNSt8__format8_ScannerIcE11_M_on_charsEPKc
	.type	_ZNSt8__format8_ScannerIcE11_M_on_charsEPKc, @function
_ZNSt8__format8_ScannerIcE11_M_on_charsEPKc:
.LFB4828:
	.cfi_startproc
	pushq	%rbp
	.cfi_def_cfa_offset 16
	.cfi_offset 6, -16
	movq	%rsp, %rbp
	.cfi_def_cfa_register 6
	movq	%rdi, -8(%rbp)
	movq	%rsi, -16(%rbp)
	nop
	popq	%rbp
	.cfi_def_cfa 7, 8
	ret
	.cfi_endproc
.LFE4828:
	.size	_ZNSt8__format8_ScannerIcE11_M_on_charsEPKc, .-_ZNSt8__format8_ScannerIcE11_M_on_charsEPKc
	.section	.text._ZNSt26basic_format_parse_contextIcE10advance_toEPKc,"axG",@progbits,_ZNSt26basic_format_parse_contextIcE10advance_toEPKc,comdat
	.align 2
	.weak	_ZNSt26basic_format_parse_contextIcE10advance_toEPKc
	.type	_ZNSt26basic_format_parse_contextIcE10advance_toEPKc, @function
_ZNSt26basic_format_parse_contextIcE10advance_toEPKc:
.LFB4829:
	.cfi_startproc
	pushq	%rbp
	.cfi_def_cfa_offset 16
	.cfi_offset 6, -16
	movq	%rsp, %rbp
	.cfi_def_cfa_register 6
	movq	%rdi, -8(%rbp)
	movq	%rsi, -16(%rbp)
	movq	-8(%rbp), %rax
	movq	-16(%rbp), %rdx
	movq	%rdx, (%rax)
	nop
	popq	%rbp
	.cfi_def_cfa 7, 8
	ret
	.cfi_endproc
.LFE4829:
	.size	_ZNSt26basic_format_parse_contextIcE10advance_toEPKc, .-_ZNSt26basic_format_parse_contextIcE10advance_toEPKc
	.section	.text._ZSt3getILm0EtPKcEONSt13tuple_elementIXT_ESt4pairIT0_T1_EE4typeEOS6_,"axG",@progbits,_ZSt3getILm0EtPKcEONSt13tuple_elementIXT_ESt4pairIT0_T1_EE4typeEOS6_,comdat
	.weak	_ZSt3getILm0EtPKcEONSt13tuple_elementIXT_ESt4pairIT0_T1_EE4typeEOS6_
	.type	_ZSt3getILm0EtPKcEONSt13tuple_elementIXT_ESt4pairIT0_T1_EE4typeEOS6_, @function
_ZSt3getILm0EtPKcEONSt13tuple_elementIXT_ESt4pairIT0_T1_EE4typeEOS6_:
.LFB4831:
	.cfi_startproc
	pushq	%rbp
	.cfi_def_cfa_offset 16
	.cfi_offset 6, -16
	movq	%rsp, %rbp
	.cfi_def_cfa_register 6
	subq	$32, %rsp
	movq	%rdi, -24(%rbp)
	movq	-24(%rbp), %rax
	movq	%rax, -8(%rbp)
	movq	-8(%rbp), %rax
	movq	%rax, %rdi
	call	_ZNSt10__pair_getILm0EE10__move_getItPKcEEOT_OSt4pairIS4_T0_E
	leave
	.cfi_def_cfa 7, 8
	ret
	.cfi_endproc
.LFE4831:
	.size	_ZSt3getILm0EtPKcEONSt13tuple_elementIXT_ESt4pairIT0_T1_EE4typeEOS6_, .-_ZSt3getILm0EtPKcEONSt13tuple_elementIXT_ESt4pairIT0_T1_EE4typeEOS6_
	.section	.text._ZNSt10__pair_getILm0EE10__move_getItPKcEEOT_OSt4pairIS4_T0_E,"axG",@progbits,_ZNSt10__pair_getILm0EE10__move_getItPKcEEOT_OSt4pairIS4_T0_E,comdat
	.weak	_ZNSt10__pair_getILm0EE10__move_getItPKcEEOT_OSt4pairIS4_T0_E
	.type	_ZNSt10__pair_getILm0EE10__move_getItPKcEEOT_OSt4pairIS4_T0_E, @function
_ZNSt10__pair_getILm0EE10__move_getItPKcEEOT_OSt4pairIS4_T0_E:
.LFB4833:
	.cfi_startproc
	pushq	%rbp
	.cfi_def_cfa_offset 16
	.cfi_offset 6, -16
	movq	%rsp, %rbp
	.cfi_def_cfa_register 6
	movq	%rdi, -24(%rbp)
	movq	-24(%rbp), %rax
	movq	%rax, -8(%rbp)
	movq	-8(%rbp), %rax
	popq	%rbp
	.cfi_def_cfa 7, 8
	ret
	.cfi_endproc
.LFE4833:
	.size	_ZNSt10__pair_getILm0EE10__move_getItPKcEEOT_OSt4pairIS4_T0_E, .-_ZNSt10__pair_getILm0EE10__move_getItPKcEEOT_OSt4pairIS4_T0_E
	.section	.text._ZSt3getILm1EtPKcEONSt13tuple_elementIXT_ESt4pairIT0_T1_EE4typeEOS6_,"axG",@progbits,_ZSt3getILm1EtPKcEONSt13tuple_elementIXT_ESt4pairIT0_T1_EE4typeEOS6_,comdat
	.weak	_ZSt3getILm1EtPKcEONSt13tuple_elementIXT_ESt4pairIT0_T1_EE4typeEOS6_
	.type	_ZSt3getILm1EtPKcEONSt13tuple_elementIXT_ESt4pairIT0_T1_EE4typeEOS6_, @function
_ZSt3getILm1EtPKcEONSt13tuple_elementIXT_ESt4pairIT0_T1_EE4typeEOS6_:
.LFB4835:
	.cfi_startproc
	pushq	%rbp
	.cfi_def_cfa_offset 16
	.cfi_offset 6, -16
	movq	%rsp, %rbp
	.cfi_def_cfa_register 6
	subq	$32, %rsp
	movq	%rdi, -24(%rbp)
	movq	-24(%rbp), %rax
	movq	%rax, -8(%rbp)
	movq	-8(%rbp), %rax
	movq	%rax, %rdi
	call	_ZNSt10__pair_getILm1EE10__move_getItPKcEEOT0_OSt4pairIT_S4_E
	leave
	.cfi_def_cfa 7, 8
	ret
	.cfi_endproc
.LFE4835:
	.size	_ZSt3getILm1EtPKcEONSt13tuple_elementIXT_ESt4pairIT0_T1_EE4typeEOS6_, .-_ZSt3getILm1EtPKcEONSt13tuple_elementIXT_ESt4pairIT0_T1_EE4typeEOS6_
	.section	.text._ZNSt10__pair_getILm1EE10__move_getItPKcEEOT0_OSt4pairIT_S4_E,"axG",@progbits,_ZNSt10__pair_getILm1EE10__move_getItPKcEEOT0_OSt4pairIT_S4_E,comdat
	.weak	_ZNSt10__pair_getILm1EE10__move_getItPKcEEOT0_OSt4pairIT_S4_E
	.type	_ZNSt10__pair_getILm1EE10__move_getItPKcEEOT0_OSt4pairIT_S4_E, @function
_ZNSt10__pair_getILm1EE10__move_getItPKcEEOT0_OSt4pairIT_S4_E:
.LFB4836:
	.cfi_startproc
	pushq	%rbp
	.cfi_def_cfa_offset 16
	.cfi_offset 6, -16
	movq	%rsp, %rbp
	.cfi_def_cfa_register 6
	movq	%rdi, -24(%rbp)
	movq	-24(%rbp), %rax
	addq	$8, %rax
	movq	%rax, -8(%rbp)
	movq	-8(%rbp), %rax
	popq	%rbp
	.cfi_def_cfa 7, 8
	ret
	.cfi_endproc
.LFE4836:
	.size	_ZNSt10__pair_getILm1EE10__move_getItPKcEEOT0_OSt4pairIT_S4_E, .-_ZNSt10__pair_getILm1EE10__move_getItPKcEEOT0_OSt4pairIT_S4_E
	.section	.text._ZNSt8__format8_ScannerIcE23_M_on_replacement_fieldEv,"axG",@progbits,_ZNSt8__format8_ScannerIcE23_M_on_replacement_fieldEv,comdat
	.align 2
	.weak	_ZNSt8__format8_ScannerIcE23_M_on_replacement_fieldEv
	.type	_ZNSt8__format8_ScannerIcE23_M_on_replacement_fieldEv, @function
_ZNSt8__format8_ScannerIcE23_M_on_replacement_fieldEv:
.LFB4830:
	.cfi_startproc
	pushq	%rbp
	.cfi_def_cfa_offset 16
	.cfi_offset 6, -16
	movq	%rsp, %rbp
	.cfi_def_cfa_register 6
	pushq	%rbx
	subq	$72, %rsp
	.cfi_offset 3, -24
	movq	%rdi, -72(%rbp)
	movq	-72(%rbp), %rax
	movq	%rax, %rdi
	call	_ZNKSt8__format8_ScannerIcE5beginEv
	movq	%rax, -32(%rbp)
	movq	-32(%rbp), %rax
	movzbl	(%rax), %eax
	cmpb	$125, %al
	jne	.L273
	movq	-72(%rbp), %rax
	addq	$8, %rax
	movq	%rax, %rdi
	call	_ZNSt26basic_format_parse_contextIcE11next_arg_idEv
	movq	%rax, -24(%rbp)
	jmp	.L274
.L273:
	movq	-32(%rbp), %rax
	movzbl	(%rax), %eax
	cmpb	$58, %al
	jne	.L275
	movq	-72(%rbp), %rax
	addq	$8, %rax
	movq	%rax, %rdi
	call	_ZNSt26basic_format_parse_contextIcE11next_arg_idEv
	movq	%rax, -24(%rbp)
	movq	-72(%rbp), %rax
	leaq	8(%rax), %rdx
	addq	$1, -32(%rbp)
	movq	-32(%rbp), %rax
	movq	%rax, %rsi
	movq	%rdx, %rdi
	call	_ZNSt26basic_format_parse_contextIcE10advance_toEPKc
	jmp	.L274
.L275:
	movq	-72(%rbp), %rax
	movq	%rax, %rdi
	call	_ZNKSt8__format8_ScannerIcE3endEv
	movq	%rax, %rbx
	movq	-72(%rbp), %rax
	movq	%rax, %rdi
	call	_ZNKSt8__format8_ScannerIcE5beginEv
	movq	%rbx, %rsi
	movq	%rax, %rdi
	call	_ZNSt8__format14__parse_arg_idIcEESt4pairItPKT_ES4_S4_
	movl	%eax, %ecx
	movq	%rdx, %rax
	movl	%ecx, -64(%rbp)
	movq	%rax, -56(%rbp)
	leaq	-64(%rbp), %rax
	movq	%rax, %rdi
	call	_ZSt3getILm0EtPKcEONSt13tuple_elementIXT_ESt4pairIT0_T1_EE4typeEOS6_
	movq	%rax, -40(%rbp)
	leaq	-64(%rbp), %rax
	movq	%rax, %rdi
	call	_ZSt3getILm1EtPKcEONSt13tuple_elementIXT_ESt4pairIT0_T1_EE4typeEOS6_
	movq	%rax, -48(%rbp)
	movq	-48(%rbp), %rax
	movq	(%rax), %rax
	testq	%rax, %rax
	je	.L276
	movq	-48(%rbp), %rax
	movq	(%rax), %rax
	movzbl	(%rax), %eax
	cmpb	$125, %al
	je	.L277
	movq	-48(%rbp), %rax
	movq	(%rax), %rax
	movzbl	(%rax), %eax
	cmpb	$58, %al
	je	.L277
.L276:
	call	_ZNSt8__format33__invalid_arg_id_in_format_stringEv
.L277:
	movq	-72(%rbp), %rax
	leaq	8(%rax), %rdx
	movq	-40(%rbp), %rax
	movzwl	(%rax), %eax
	movzwl	%ax, %eax
	movq	%rax, -24(%rbp)
	movq	-24(%rbp), %rax
	movq	%rax, %rsi
	movq	%rdx, %rdi
	call	_ZNSt26basic_format_parse_contextIcE12check_arg_idEm
	movq	-48(%rbp), %rax
	movq	(%rax), %rax
	movzbl	(%rax), %eax
	cmpb	$58, %al
	jne	.L278
	movq	-72(%rbp), %rax
	leaq	8(%rax), %rdx
	movq	-48(%rbp), %rax
	movq	(%rax), %rax
	leaq	1(%rax), %rcx
	movq	-48(%rbp), %rax
	movq	%rcx, (%rax)
	movq	-48(%rbp), %rax
	movq	(%rax), %rax
	movq	%rax, %rsi
	movq	%rdx, %rdi
	call	_ZNSt26basic_format_parse_contextIcE10advance_toEPKc
	jmp	.L274
.L278:
	movq	-72(%rbp), %rax
	leaq	8(%rax), %rdx
	movq	-48(%rbp), %rax
	movq	(%rax), %rax
	movq	%rax, %rsi
	movq	%rdx, %rdi
	call	_ZNSt26basic_format_parse_contextIcE10advance_toEPKc
.L274:
	movq	-72(%rbp), %rax
	movq	(%rax), %rax
	addq	$8, %rax
	movq	(%rax), %rcx
	movq	-24(%rbp), %rdx
	movq	-72(%rbp), %rax
	movq	%rdx, %rsi
	movq	%rax, %rdi
	call	*%rcx
	movq	-72(%rbp), %rax
	movq	%rax, %rdi
	call	_ZNKSt8__format8_ScannerIcE5beginEv
	movq	%rax, %rbx
	movq	-72(%rbp), %rax
	movq	%rax, %rdi
	call	_ZNKSt8__format8_ScannerIcE3endEv
	cmpq	%rax, %rbx
	je	.L280
	movq	-72(%rbp), %rax
	movq	%rax, %rdi
	call	_ZNKSt8__format8_ScannerIcE5beginEv
	movzbl	(%rax), %eax
	cmpb	$125, %al
	je	.L281
.L280:
	movl	$1, %eax
	jmp	.L282
.L281:
	movl	$0, %eax
.L282:
	testb	%al, %al
	je	.L283
	call	_ZNSt8__format39__unmatched_left_brace_in_format_stringEv
.L283:
	movq	-72(%rbp), %rax
	leaq	8(%rax), %rbx
	movq	-72(%rbp), %rax
	movq	%rax, %rdi
	call	_ZNKSt8__format8_ScannerIcE5beginEv
	addq	$1, %rax
	movq	%rax, %rsi
	movq	%rbx, %rdi
	call	_ZNSt26basic_format_parse_contextIcE10advance_toEPKc
	nop
	movq	-8(%rbp), %rbx
	leave
	.cfi_def_cfa 7, 8
	ret
	.cfi_endproc
.LFE4830:
	.size	_ZNSt8__format8_ScannerIcE23_M_on_replacement_fieldEv, .-_ZNSt8__format8_ScannerIcE23_M_on_replacement_fieldEv
	.section	.text._ZNSt26basic_format_parse_contextIcE11next_arg_idEv,"axG",@progbits,_ZNSt26basic_format_parse_contextIcE11next_arg_idEv,comdat
	.align 2
	.weak	_ZNSt26basic_format_parse_contextIcE11next_arg_idEv
	.type	_ZNSt26basic_format_parse_contextIcE11next_arg_idEv, @function
_ZNSt26basic_format_parse_contextIcE11next_arg_idEv:
.LFB4838:
	.cfi_startproc
	pushq	%rbp
	.cfi_def_cfa_offset 16
	.cfi_offset 6, -16
	movq	%rsp, %rbp
	.cfi_def_cfa_register 6
	subq	$16, %rsp
	movq	%rdi, -8(%rbp)
	movq	-8(%rbp), %rax
	movl	16(%rax), %eax
	cmpl	$1, %eax
	jne	.L285
	call	_ZNSt8__format39__conflicting_indexing_in_format_stringEv
.L285:
	movq	-8(%rbp), %rax
	movl	$2, 16(%rax)
	call	_ZSt21is_constant_evaluatedv
	testb	%al, %al
	je	.L286
	movq	-8(%rbp), %rax
	movq	24(%rax), %rdx
	movq	-8(%rbp), %rax
	movq	32(%rax), %rax
	cmpq	%rax, %rdx
	jne	.L286
	call	_ZNSt8__format33__invalid_arg_id_in_format_stringEv
.L286:
	movq	-8(%rbp), %rax
	movq	24(%rax), %rax
	leaq	1(%rax), %rcx
	movq	-8(%rbp), %rdx
	movq	%rcx, 24(%rdx)
	leave
	.cfi_def_cfa 7, 8
	ret
	.cfi_endproc
.LFE4838:
	.size	_ZNSt26basic_format_parse_contextIcE11next_arg_idEv, .-_ZNSt26basic_format_parse_contextIcE11next_arg_idEv
	.section	.text._ZNSt8__format15__formatter_intIcE8_M_parseIiEEPKcRSt26basic_format_parse_contextIcE,"axG",@progbits,_ZNSt8__format15__formatter_intIcE8_M_parseIiEEPKcRSt26basic_format_parse_contextIcE,comdat
	.align 2
	.weak	_ZNSt8__format15__formatter_intIcE8_M_parseIiEEPKcRSt26basic_format_parse_contextIcE
	.type	_ZNSt8__format15__formatter_intIcE8_M_parseIiEEPKcRSt26basic_format_parse_contextIcE, @function
_ZNSt8__format15__formatter_intIcE8_M_parseIiEEPKcRSt26basic_format_parse_contextIcE:
.LFB4848:
	.cfi_startproc
	pushq	%rbp
	.cfi_def_cfa_offset 16
	.cfi_offset 6, -16
	movq	%rsp, %rbp
	.cfi_def_cfa_register 6
	subq	$16, %rsp
	movq	%rdi, -8(%rbp)
	movq	%rsi, -16(%rbp)
	movq	-16(%rbp), %rcx
	movq	-8(%rbp), %rax
	movl	$1, %edx
	movq	%rcx, %rsi
	movq	%rax, %rdi
	call	_ZNSt8__format15__formatter_intIcE11_M_do_parseERSt26basic_format_parse_contextIcENS_10_Pres_typeE
	leave
	.cfi_def_cfa 7, 8
	ret
	.cfi_endproc
.LFE4848:
	.size	_ZNSt8__format15__formatter_intIcE8_M_parseIiEEPKcRSt26basic_format_parse_contextIcE, .-_ZNSt8__format15__formatter_intIcE8_M_parseIiEEPKcRSt26basic_format_parse_contextIcE
	.section	.text._ZZNSt8__format15__formatter_intIcE11_M_do_parseERSt26basic_format_parse_contextIcENS_10_Pres_typeEENKUlvE_clEv,"axG",@progbits,_ZZNSt8__format15__formatter_intIcE11_M_do_parseERSt26basic_format_parse_contextIcENS_10_Pres_typeEENKUlvE_clEv,comdat
	.align 2
	.weak	_ZZNSt8__format15__formatter_intIcE11_M_do_parseERSt26basic_format_parse_contextIcENS_10_Pres_typeEENKUlvE_clEv
	.type	_ZZNSt8__format15__formatter_intIcE11_M_do_parseERSt26basic_format_parse_contextIcENS_10_Pres_typeEENKUlvE_clEv, @function
_ZZNSt8__format15__formatter_intIcE11_M_do_parseERSt26basic_format_parse_contextIcENS_10_Pres_typeEENKUlvE_clEv:
.LFB4850:
	.cfi_startproc
	pushq	%rbp
	.cfi_def_cfa_offset 16
	.cfi_offset 6, -16
	movq	%rsp, %rbp
	.cfi_def_cfa_register 6
	movq	%rdi, -8(%rbp)
	movq	-8(%rbp), %rax
	movq	8(%rax), %rdx
	movq	-8(%rbp), %rax
	movq	(%rax), %rax
	movq	(%rdx), %rcx
	movq	%rcx, (%rax)
	movl	8(%rdx), %edx
	movl	%edx, 8(%rax)
	nop
	popq	%rbp
	.cfi_def_cfa 7, 8
	ret
	.cfi_endproc
.LFE4850:
	.size	_ZZNSt8__format15__formatter_intIcE11_M_do_parseERSt26basic_format_parse_contextIcENS_10_Pres_typeEENKUlvE_clEv, .-_ZZNSt8__format15__formatter_intIcE11_M_do_parseERSt26basic_format_parse_contextIcENS_10_Pres_typeEENKUlvE_clEv
	.section	.text._ZZNSt8__format15__formatter_intIcE11_M_do_parseERSt26basic_format_parse_contextIcENS_10_Pres_typeEENKUlvE0_clEv,"axG",@progbits,_ZZNSt8__format15__formatter_intIcE11_M_do_parseERSt26basic_format_parse_contextIcENS_10_Pres_typeEENKUlvE0_clEv,comdat
	.align 2
	.weak	_ZZNSt8__format15__formatter_intIcE11_M_do_parseERSt26basic_format_parse_contextIcENS_10_Pres_typeEENKUlvE0_clEv
	.type	_ZZNSt8__format15__formatter_intIcE11_M_do_parseERSt26basic_format_parse_contextIcENS_10_Pres_typeEENKUlvE0_clEv, @function
_ZZNSt8__format15__formatter_intIcE11_M_do_parseERSt26basic_format_parse_contextIcENS_10_Pres_typeEENKUlvE0_clEv:
.LFB4851:
	.cfi_startproc
	pushq	%rbp
	.cfi_def_cfa_offset 16
	.cfi_offset 6, -16
	movq	%rsp, %rbp
	.cfi_def_cfa_register 6
	subq	$16, %rsp
	movq	%rdi, -8(%rbp)
	movq	-8(%rbp), %rax
	movq	(%rax), %rax
	movq	(%rax), %rdx
	movq	-8(%rbp), %rax
	movq	8(%rax), %rax
	movq	(%rax), %rax
	cmpq	%rax, %rdx
	je	.L292
	movq	-8(%rbp), %rax
	movq	(%rax), %rax
	movq	(%rax), %rax
	movzbl	(%rax), %eax
	cmpb	$125, %al
	jne	.L293
.L292:
	movq	-8(%rbp), %rax
	movq	16(%rax), %rax
	movq	%rax, %rdi
	call	_ZZNSt8__format15__formatter_intIcE11_M_do_parseERSt26basic_format_parse_contextIcENS_10_Pres_typeEENKUlvE_clEv
	movl	$1, %eax
	jmp	.L294
.L293:
	movl	$0, %eax
.L294:
	leave
	.cfi_def_cfa 7, 8
	ret
	.cfi_endproc
.LFE4851:
	.size	_ZZNSt8__format15__formatter_intIcE11_M_do_parseERSt26basic_format_parse_contextIcENS_10_Pres_typeEENKUlvE0_clEv, .-_ZZNSt8__format15__formatter_intIcE11_M_do_parseERSt26basic_format_parse_contextIcENS_10_Pres_typeEENKUlvE0_clEv
	.section	.text._ZNSt8__format15__formatter_intIcE11_M_do_parseERSt26basic_format_parse_contextIcENS_10_Pres_typeE,"axG",@progbits,_ZNSt8__format15__formatter_intIcE11_M_do_parseERSt26basic_format_parse_contextIcENS_10_Pres_typeE,comdat
	.align 2
	.weak	_ZNSt8__format15__formatter_intIcE11_M_do_parseERSt26basic_format_parse_contextIcENS_10_Pres_typeE
	.type	_ZNSt8__format15__formatter_intIcE11_M_do_parseERSt26basic_format_parse_contextIcENS_10_Pres_typeE, @function
_ZNSt8__format15__formatter_intIcE11_M_do_parseERSt26basic_format_parse_contextIcENS_10_Pres_typeE:
.LFB4849:
	.cfi_startproc
	pushq	%rbp
	.cfi_def_cfa_offset 16
	.cfi_offset 6, -16
	movq	%rsp, %rbp
	.cfi_def_cfa_register 6
	subq	$112, %rsp
	movq	%rdi, -88(%rbp)
	movq	%rsi, -96(%rbp)
	movl	%edx, -100(%rbp)
	movq	$0, -12(%rbp)
	movl	$0, -4(%rbp)
	movl	$32, -4(%rbp)
	movl	-100(%rbp), %eax
	andl	$15, %eax
	andl	$15, %eax
	leal	0(,%rax,8), %edx
	movzbl	-11(%rbp), %eax
	andl	$-121, %eax
	orl	%edx, %eax
	movb	%al, -11(%rbp)
	movq	-96(%rbp), %rax
	movq	%rax, %rdi
	call	_ZNKSt26basic_format_parse_contextIcE3endEv
	movq	%rax, -24(%rbp)
	movq	-96(%rbp), %rax
	movq	%rax, %rdi
	call	_ZNKSt26basic_format_parse_contextIcE5beginEv
	movq	%rax, -32(%rbp)
	movq	-88(%rbp), %rax
	movq	%rax, -48(%rbp)
	leaq	-12(%rbp), %rax
	movq	%rax, -40(%rbp)
	leaq	-32(%rbp), %rax
	movq	%rax, -80(%rbp)
	leaq	-24(%rbp), %rax
	movq	%rax, -72(%rbp)
	leaq	-48(%rbp), %rax
	movq	%rax, -64(%rbp)
	leaq	-80(%rbp), %rax
	movq	%rax, %rdi
	call	_ZZNSt8__format15__formatter_intIcE11_M_do_parseERSt26basic_format_parse_contextIcENS_10_Pres_typeEENKUlvE0_clEv
	testb	%al, %al
	je	.L296
	movq	-32(%rbp), %rax
	jmp	.L318
.L296:
	movq	-24(%rbp), %rdx
	movq	-32(%rbp), %rcx
	leaq	-12(%rbp), %rax
	movq	%rcx, %rsi
	movq	%rax, %rdi
	call	_ZNSt8__format5_SpecIcE23_M_parse_fill_and_alignEPKcS3_
	movq	%rax, -32(%rbp)
	leaq	-80(%rbp), %rax
	movq	%rax, %rdi
	call	_ZZNSt8__format15__formatter_intIcE11_M_do_parseERSt26basic_format_parse_contextIcENS_10_Pres_typeEENKUlvE0_clEv
	testb	%al, %al
	je	.L298
	movq	-32(%rbp), %rax
	jmp	.L318
.L298:
	movq	-24(%rbp), %rdx
	movq	-32(%rbp), %rcx
	leaq	-12(%rbp), %rax
	movq	%rcx, %rsi
	movq	%rax, %rdi
	call	_ZNSt8__format5_SpecIcE13_M_parse_signEPKcS3_
	movq	%rax, -32(%rbp)
	leaq	-80(%rbp), %rax
	movq	%rax, %rdi
	call	_ZZNSt8__format15__formatter_intIcE11_M_do_parseERSt26basic_format_parse_contextIcENS_10_Pres_typeEENKUlvE0_clEv
	testb	%al, %al
	je	.L299
	movq	-32(%rbp), %rax
	jmp	.L318
.L299:
	movq	-24(%rbp), %rdx
	movq	-32(%rbp), %rcx
	leaq	-12(%rbp), %rax
	movq	%rcx, %rsi
	movq	%rax, %rdi
	call	_ZNSt8__format5_SpecIcE23_M_parse_alternate_formEPKcS3_
	movq	%rax, -32(%rbp)
	leaq	-80(%rbp), %rax
	movq	%rax, %rdi
	call	_ZZNSt8__format15__formatter_intIcE11_M_do_parseERSt26basic_format_parse_contextIcENS_10_Pres_typeEENKUlvE0_clEv
	testb	%al, %al
	je	.L300
	movq	-32(%rbp), %rax
	jmp	.L318
.L300:
	movq	-24(%rbp), %rdx
	movq	-32(%rbp), %rcx
	leaq	-12(%rbp), %rax
	movq	%rcx, %rsi
	movq	%rax, %rdi
	call	_ZNSt8__format5_SpecIcE18_M_parse_zero_fillEPKcS3_
	movq	%rax, -32(%rbp)
	leaq	-80(%rbp), %rax
	movq	%rax, %rdi
	call	_ZZNSt8__format15__formatter_intIcE11_M_do_parseERSt26basic_format_parse_contextIcENS_10_Pres_typeEENKUlvE0_clEv
	testb	%al, %al
	je	.L301
	movq	-32(%rbp), %rax
	jmp	.L318
.L301:
	movq	-24(%rbp), %rdx
	movq	-32(%rbp), %rsi
	movq	-96(%rbp), %rcx
	leaq	-12(%rbp), %rax
	movq	%rax, %rdi
	call	_ZNSt8__format5_SpecIcE14_M_parse_widthEPKcS3_RSt26basic_format_parse_contextIcE
	movq	%rax, -32(%rbp)
	leaq	-80(%rbp), %rax
	movq	%rax, %rdi
	call	_ZZNSt8__format15__formatter_intIcE11_M_do_parseERSt26basic_format_parse_contextIcENS_10_Pres_typeEENKUlvE0_clEv
	testb	%al, %al
	je	.L302
	movq	-32(%rbp), %rax
	jmp	.L318
.L302:
	movq	-24(%rbp), %rdx
	movq	-32(%rbp), %rcx
	leaq	-12(%rbp), %rax
	movq	%rcx, %rsi
	movq	%rax, %rdi
	call	_ZNSt8__format5_SpecIcE15_M_parse_localeEPKcS3_
	movq	%rax, -32(%rbp)
	leaq	-80(%rbp), %rax
	movq	%rax, %rdi
	call	_ZZNSt8__format15__formatter_intIcE11_M_do_parseERSt26basic_format_parse_contextIcENS_10_Pres_typeEENKUlvE0_clEv
	testb	%al, %al
	je	.L303
	movq	-32(%rbp), %rax
	jmp	.L318
.L303:
	movq	-32(%rbp), %rax
	movzbl	(%rax), %eax
	movsbl	%al, %eax
	cmpl	$120, %eax
	je	.L304
	cmpl	$120, %eax
	jg	.L305
	cmpl	$115, %eax
	je	.L306
	cmpl	$115, %eax
	jg	.L305
	cmpl	$111, %eax
	je	.L307
	cmpl	$111, %eax
	jg	.L305
	cmpl	$100, %eax
	je	.L308
	cmpl	$100, %eax
	jg	.L305
	cmpl	$99, %eax
	je	.L309
	cmpl	$99, %eax
	jg	.L305
	cmpl	$98, %eax
	je	.L310
	cmpl	$98, %eax
	jg	.L305
	cmpl	$88, %eax
	je	.L311
	cmpl	$88, %eax
	jg	.L305
	cmpl	$63, %eax
	je	.L312
	cmpl	$66, %eax
	je	.L313
	jmp	.L305
.L310:
	movzbl	-11(%rbp), %eax
	andl	$-121, %eax
	orl	$16, %eax
	movb	%al, -11(%rbp)
	movq	-32(%rbp), %rax
	addq	$1, %rax
	movq	%rax, -32(%rbp)
	jmp	.L305
.L313:
	movzbl	-11(%rbp), %eax
	andl	$-121, %eax
	orl	$24, %eax
	movb	%al, -11(%rbp)
	movq	-32(%rbp), %rax
	addq	$1, %rax
	movq	%rax, -32(%rbp)
	jmp	.L305
.L309:
	cmpl	$0, -100(%rbp)
	je	.L319
	movzbl	-11(%rbp), %eax
	andl	$-121, %eax
	orl	$56, %eax
	movb	%al, -11(%rbp)
	movq	-32(%rbp), %rax
	addq	$1, %rax
	movq	%rax, -32(%rbp)
	jmp	.L319
.L308:
	movzbl	-11(%rbp), %eax
	andl	$-121, %eax
	orl	$8, %eax
	movb	%al, -11(%rbp)
	movq	-32(%rbp), %rax
	addq	$1, %rax
	movq	%rax, -32(%rbp)
	jmp	.L305
.L307:
	movzbl	-11(%rbp), %eax
	andl	$-121, %eax
	orl	$32, %eax
	movb	%al, -11(%rbp)
	movq	-32(%rbp), %rax
	addq	$1, %rax
	movq	%rax, -32(%rbp)
	jmp	.L305
.L304:
	movzbl	-11(%rbp), %eax
	andl	$-121, %eax
	orl	$40, %eax
	movb	%al, -11(%rbp)
	movq	-32(%rbp), %rax
	addq	$1, %rax
	movq	%rax, -32(%rbp)
	jmp	.L305
.L311:
	movzbl	-11(%rbp), %eax
	andl	$-121, %eax
	orl	$48, %eax
	movb	%al, -11(%rbp)
	movq	-32(%rbp), %rax
	addq	$1, %rax
	movq	%rax, -32(%rbp)
	jmp	.L305
.L306:
	cmpl	$0, -100(%rbp)
	jne	.L320
	movzbl	-11(%rbp), %eax
	andl	$-121, %eax
	movb	%al, -11(%rbp)
	movq	-32(%rbp), %rax
	addq	$1, %rax
	movq	%rax, -32(%rbp)
	jmp	.L320
.L312:
	cmpl	$7, -100(%rbp)
	jne	.L321
	movzbl	-11(%rbp), %eax
	orl	$120, %eax
	movb	%al, -11(%rbp)
	movq	-32(%rbp), %rax
	addq	$1, %rax
	movq	%rax, -32(%rbp)
	jmp	.L321
.L319:
	nop
	jmp	.L305
.L320:
	nop
	jmp	.L305
.L321:
	nop
.L305:
	leaq	-80(%rbp), %rax
	movq	%rax, %rdi
	call	_ZZNSt8__format15__formatter_intIcE11_M_do_parseERSt26basic_format_parse_contextIcENS_10_Pres_typeEENKUlvE0_clEv
	testb	%al, %al
	je	.L317
	movq	-32(%rbp), %rax
	jmp	.L318
.L317:
	call	_ZNSt8__format29__failed_to_parse_format_specEv
.L318:
	leave
	.cfi_def_cfa 7, 8
	ret
	.cfi_endproc
.LFE4849:
	.size	_ZNSt8__format15__formatter_intIcE11_M_do_parseERSt26basic_format_parse_contextIcENS_10_Pres_typeE, .-_ZNSt8__format15__formatter_intIcE11_M_do_parseERSt26basic_format_parse_contextIcENS_10_Pres_typeE
	.section	.text._ZZNSt8__format14__formatter_fpIcE5parseERSt26basic_format_parse_contextIcEENKUlvE_clEv,"axG",@progbits,_ZZNSt8__format14__formatter_fpIcE5parseERSt26basic_format_parse_contextIcEENKUlvE_clEv,comdat
	.align 2
	.weak	_ZZNSt8__format14__formatter_fpIcE5parseERSt26basic_format_parse_contextIcEENKUlvE_clEv
	.type	_ZZNSt8__format14__formatter_fpIcE5parseERSt26basic_format_parse_contextIcEENKUlvE_clEv, @function
_ZZNSt8__format14__formatter_fpIcE5parseERSt26basic_format_parse_contextIcEENKUlvE_clEv:
.LFB4868:
	.cfi_startproc
	pushq	%rbp
	.cfi_def_cfa_offset 16
	.cfi_offset 6, -16
	movq	%rsp, %rbp
	.cfi_def_cfa_register 6
	movq	%rdi, -8(%rbp)
	movq	-8(%rbp), %rax
	movq	8(%rax), %rdx
	movq	-8(%rbp), %rax
	movq	(%rax), %rax
	movq	(%rdx), %rcx
	movq	%rcx, (%rax)
	movl	8(%rdx), %edx
	movl	%edx, 8(%rax)
	nop
	popq	%rbp
	.cfi_def_cfa 7, 8
	ret
	.cfi_endproc
.LFE4868:
	.size	_ZZNSt8__format14__formatter_fpIcE5parseERSt26basic_format_parse_contextIcEENKUlvE_clEv, .-_ZZNSt8__format14__formatter_fpIcE5parseERSt26basic_format_parse_contextIcEENKUlvE_clEv
	.section	.text._ZZNSt8__format14__formatter_fpIcE5parseERSt26basic_format_parse_contextIcEENKUlvE0_clEv,"axG",@progbits,_ZZNSt8__format14__formatter_fpIcE5parseERSt26basic_format_parse_contextIcEENKUlvE0_clEv,comdat
	.align 2
	.weak	_ZZNSt8__format14__formatter_fpIcE5parseERSt26basic_format_parse_contextIcEENKUlvE0_clEv
	.type	_ZZNSt8__format14__formatter_fpIcE5parseERSt26basic_format_parse_contextIcEENKUlvE0_clEv, @function
_ZZNSt8__format14__formatter_fpIcE5parseERSt26basic_format_parse_contextIcEENKUlvE0_clEv:
.LFB4869:
	.cfi_startproc
	pushq	%rbp
	.cfi_def_cfa_offset 16
	.cfi_offset 6, -16
	movq	%rsp, %rbp
	.cfi_def_cfa_register 6
	subq	$16, %rsp
	movq	%rdi, -8(%rbp)
	movq	-8(%rbp), %rax
	movq	(%rax), %rax
	movq	(%rax), %rdx
	movq	-8(%rbp), %rax
	movq	8(%rax), %rax
	movq	(%rax), %rax
	cmpq	%rax, %rdx
	je	.L324
	movq	-8(%rbp), %rax
	movq	(%rax), %rax
	movq	(%rax), %rax
	movzbl	(%rax), %eax
	cmpb	$125, %al
	jne	.L325
.L324:
	movq	-8(%rbp), %rax
	movq	16(%rax), %rax
	movq	%rax, %rdi
	call	_ZZNSt8__format14__formatter_fpIcE5parseERSt26basic_format_parse_contextIcEENKUlvE_clEv
	movl	$1, %eax
	jmp	.L326
.L325:
	movl	$0, %eax
.L326:
	leave
	.cfi_def_cfa 7, 8
	ret
	.cfi_endproc
.LFE4869:
	.size	_ZZNSt8__format14__formatter_fpIcE5parseERSt26basic_format_parse_contextIcEENKUlvE0_clEv, .-_ZZNSt8__format14__formatter_fpIcE5parseERSt26basic_format_parse_contextIcEENKUlvE0_clEv
	.section	.text._ZNSt8__format14__formatter_fpIcE5parseERSt26basic_format_parse_contextIcE,"axG",@progbits,_ZNSt8__format14__formatter_fpIcE5parseERSt26basic_format_parse_contextIcE,comdat
	.align 2
	.weak	_ZNSt8__format14__formatter_fpIcE5parseERSt26basic_format_parse_contextIcE
	.type	_ZNSt8__format14__formatter_fpIcE5parseERSt26basic_format_parse_contextIcE, @function
_ZNSt8__format14__formatter_fpIcE5parseERSt26basic_format_parse_contextIcE:
.LFB4867:
	.cfi_startproc
	pushq	%rbp
	.cfi_def_cfa_offset 16
	.cfi_offset 6, -16
	movq	%rsp, %rbp
	.cfi_def_cfa_register 6
	subq	$96, %rsp
	movq	%rdi, -88(%rbp)
	movq	%rsi, -96(%rbp)
	movq	$0, -12(%rbp)
	movl	$0, -4(%rbp)
	movl	$32, -4(%rbp)
	movq	-96(%rbp), %rax
	movq	%rax, %rdi
	call	_ZNKSt26basic_format_parse_contextIcE3endEv
	movq	%rax, -24(%rbp)
	movq	-96(%rbp), %rax
	movq	%rax, %rdi
	call	_ZNKSt26basic_format_parse_contextIcE5beginEv
	movq	%rax, -32(%rbp)
	movq	-88(%rbp), %rax
	movq	%rax, -48(%rbp)
	leaq	-12(%rbp), %rax
	movq	%rax, -40(%rbp)
	leaq	-32(%rbp), %rax
	movq	%rax, -80(%rbp)
	leaq	-24(%rbp), %rax
	movq	%rax, -72(%rbp)
	leaq	-48(%rbp), %rax
	movq	%rax, -64(%rbp)
	leaq	-80(%rbp), %rax
	movq	%rax, %rdi
	call	_ZZNSt8__format14__formatter_fpIcE5parseERSt26basic_format_parse_contextIcEENKUlvE0_clEv
	testb	%al, %al
	je	.L328
	movq	-32(%rbp), %rax
	jmp	.L347
.L328:
	movq	-24(%rbp), %rdx
	movq	-32(%rbp), %rcx
	leaq	-12(%rbp), %rax
	movq	%rcx, %rsi
	movq	%rax, %rdi
	call	_ZNSt8__format5_SpecIcE23_M_parse_fill_and_alignEPKcS3_
	movq	%rax, -32(%rbp)
	leaq	-80(%rbp), %rax
	movq	%rax, %rdi
	call	_ZZNSt8__format14__formatter_fpIcE5parseERSt26basic_format_parse_contextIcEENKUlvE0_clEv
	testb	%al, %al
	je	.L330
	movq	-32(%rbp), %rax
	jmp	.L347
.L330:
	movq	-24(%rbp), %rdx
	movq	-32(%rbp), %rcx
	leaq	-12(%rbp), %rax
	movq	%rcx, %rsi
	movq	%rax, %rdi
	call	_ZNSt8__format5_SpecIcE13_M_parse_signEPKcS3_
	movq	%rax, -32(%rbp)
	leaq	-80(%rbp), %rax
	movq	%rax, %rdi
	call	_ZZNSt8__format14__formatter_fpIcE5parseERSt26basic_format_parse_contextIcEENKUlvE0_clEv
	testb	%al, %al
	je	.L331
	movq	-32(%rbp), %rax
	jmp	.L347
.L331:
	movq	-24(%rbp), %rdx
	movq	-32(%rbp), %rcx
	leaq	-12(%rbp), %rax
	movq	%rcx, %rsi
	movq	%rax, %rdi
	call	_ZNSt8__format5_SpecIcE23_M_parse_alternate_formEPKcS3_
	movq	%rax, -32(%rbp)
	leaq	-80(%rbp), %rax
	movq	%rax, %rdi
	call	_ZZNSt8__format14__formatter_fpIcE5parseERSt26basic_format_parse_contextIcEENKUlvE0_clEv
	testb	%al, %al
	je	.L332
	movq	-32(%rbp), %rax
	jmp	.L347
.L332:
	movq	-24(%rbp), %rdx
	movq	-32(%rbp), %rcx
	leaq	-12(%rbp), %rax
	movq	%rcx, %rsi
	movq	%rax, %rdi
	call	_ZNSt8__format5_SpecIcE18_M_parse_zero_fillEPKcS3_
	movq	%rax, -32(%rbp)
	leaq	-80(%rbp), %rax
	movq	%rax, %rdi
	call	_ZZNSt8__format14__formatter_fpIcE5parseERSt26basic_format_parse_contextIcEENKUlvE0_clEv
	testb	%al, %al
	je	.L333
	movq	-32(%rbp), %rax
	jmp	.L347
.L333:
	movq	-32(%rbp), %rax
	movzbl	(%rax), %eax
	cmpb	$46, %al
	je	.L334
	movq	-24(%rbp), %rdx
	movq	-32(%rbp), %rsi
	movq	-96(%rbp), %rcx
	leaq	-12(%rbp), %rax
	movq	%rax, %rdi
	call	_ZNSt8__format5_SpecIcE14_M_parse_widthEPKcS3_RSt26basic_format_parse_contextIcE
	movq	%rax, -32(%rbp)
	leaq	-80(%rbp), %rax
	movq	%rax, %rdi
	call	_ZZNSt8__format14__formatter_fpIcE5parseERSt26basic_format_parse_contextIcEENKUlvE0_clEv
	testb	%al, %al
	je	.L334
	movq	-32(%rbp), %rax
	jmp	.L347
.L334:
	movq	-24(%rbp), %rdx
	movq	-32(%rbp), %rsi
	movq	-96(%rbp), %rcx
	leaq	-12(%rbp), %rax
	movq	%rax, %rdi
	call	_ZNSt8__format5_SpecIcE18_M_parse_precisionEPKcS3_RSt26basic_format_parse_contextIcE
	movq	%rax, -32(%rbp)
	leaq	-80(%rbp), %rax
	movq	%rax, %rdi
	call	_ZZNSt8__format14__formatter_fpIcE5parseERSt26basic_format_parse_contextIcEENKUlvE0_clEv
	testb	%al, %al
	je	.L335
	movq	-32(%rbp), %rax
	jmp	.L347
.L335:
	movq	-24(%rbp), %rdx
	movq	-32(%rbp), %rcx
	leaq	-12(%rbp), %rax
	movq	%rcx, %rsi
	movq	%rax, %rdi
	call	_ZNSt8__format5_SpecIcE15_M_parse_localeEPKcS3_
	movq	%rax, -32(%rbp)
	leaq	-80(%rbp), %rax
	movq	%rax, %rdi
	call	_ZZNSt8__format14__formatter_fpIcE5parseERSt26basic_format_parse_contextIcEENKUlvE0_clEv
	testb	%al, %al
	je	.L336
	movq	-32(%rbp), %rax
	jmp	.L347
.L336:
	movq	-32(%rbp), %rax
	movzbl	(%rax), %eax
	movsbl	%al, %eax
	cmpl	$103, %eax
	je	.L337
	cmpl	$103, %eax
	jg	.L338
	cmpl	$102, %eax
	je	.L339
	cmpl	$102, %eax
	jg	.L338
	cmpl	$101, %eax
	je	.L340
	cmpl	$101, %eax
	jg	.L338
	cmpl	$97, %eax
	je	.L341
	cmpl	$97, %eax
	jg	.L338
	cmpl	$71, %eax
	je	.L342
	cmpl	$71, %eax
	jg	.L338
	cmpl	$70, %eax
	je	.L343
	cmpl	$70, %eax
	jg	.L338
	cmpl	$65, %eax
	je	.L344
	cmpl	$69, %eax
	je	.L345
	jmp	.L338
.L341:
	movzbl	-11(%rbp), %eax
	andl	$-121, %eax
	orl	$8, %eax
	movb	%al, -11(%rbp)
	movq	-32(%rbp), %rax
	addq	$1, %rax
	movq	%rax, -32(%rbp)
	jmp	.L338
.L344:
	movzbl	-11(%rbp), %eax
	andl	$-121, %eax
	orl	$16, %eax
	movb	%al, -11(%rbp)
	movq	-32(%rbp), %rax
	addq	$1, %rax
	movq	%rax, -32(%rbp)
	jmp	.L338
.L340:
	movzbl	-11(%rbp), %eax
	andl	$-121, %eax
	orl	$24, %eax
	movb	%al, -11(%rbp)
	movq	-32(%rbp), %rax
	addq	$1, %rax
	movq	%rax, -32(%rbp)
	jmp	.L338
.L345:
	movzbl	-11(%rbp), %eax
	andl	$-121, %eax
	orl	$32, %eax
	movb	%al, -11(%rbp)
	movq	-32(%rbp), %rax
	addq	$1, %rax
	movq	%rax, -32(%rbp)
	jmp	.L338
.L339:
	movzbl	-11(%rbp), %eax
	andl	$-121, %eax
	orl	$40, %eax
	movb	%al, -11(%rbp)
	movq	-32(%rbp), %rax
	addq	$1, %rax
	movq	%rax, -32(%rbp)
	jmp	.L338
.L343:
	movzbl	-11(%rbp), %eax
	andl	$-121, %eax
	orl	$48, %eax
	movb	%al, -11(%rbp)
	movq	-32(%rbp), %rax
	addq	$1, %rax
	movq	%rax, -32(%rbp)
	jmp	.L338
.L337:
	movzbl	-11(%rbp), %eax
	andl	$-121, %eax
	orl	$56, %eax
	movb	%al, -11(%rbp)
	movq	-32(%rbp), %rax
	addq	$1, %rax
	movq	%rax, -32(%rbp)
	jmp	.L338
.L342:
	movzbl	-11(%rbp), %eax
	andl	$-121, %eax
	orl	$64, %eax
	movb	%al, -11(%rbp)
	movq	-32(%rbp), %rax
	addq	$1, %rax
	movq	%rax, -32(%rbp)
	nop
.L338:
	leaq	-80(%rbp), %rax
	movq	%rax, %rdi
	call	_ZZNSt8__format14__formatter_fpIcE5parseERSt26basic_format_parse_contextIcEENKUlvE0_clEv
	testb	%al, %al
	je	.L346
	movq	-32(%rbp), %rax
	jmp	.L347
.L346:
	call	_ZNSt8__format29__failed_to_parse_format_specEv
.L347:
	leave
	.cfi_def_cfa 7, 8
	ret
	.cfi_endproc
.LFE4867:
	.size	_ZNSt8__format14__formatter_fpIcE5parseERSt26basic_format_parse_contextIcE, .-_ZNSt8__format14__formatter_fpIcE5parseERSt26basic_format_parse_contextIcE
	.section	.rodata
.LC9:
	.string	"Hello World {}\n"
.LC10:
	.string	"{}\n"
	.text
	.globl	main
	.type	main, @function
main:
.LFB4791:
	.cfi_startproc
	pushq	%rbp
	.cfi_def_cfa_offset 16
	.cfi_offset 6, -16
	movq	%rsp, %rbp
	.cfi_def_cfa_register 6
	subq	$80, %rsp
	movq	$10, -8(%rbp)
	movl	$0, -68(%rbp)
	jmp	.L349
.L350:
	movq	$15, -64(%rbp)
	movq	$.LC9, -56(%rbp)
	leaq	-68(%rbp), %rdx
	movq	-64(%rbp), %rcx
	movq	-56(%rbp), %rax
	movq	%rcx, %rdi
	movq	%rax, %rsi
	call	_ZSt5printIJRiEEvSt19basic_format_stringIcJDpNSt13type_identityIT_E4typeEEEDpOS3_
	movl	$4, %edi
	call	_ZSt4sqrtIiEN9__gnu_cxx11__enable_ifIXsrSt12__is_integerIT_E7__valueEdE6__typeES3_
	movq	%xmm0, %rax
	movq	%rax, -40(%rbp)
	movq	$3, -32(%rbp)
	movq	$.LC10, -24(%rbp)
	leaq	-40(%rbp), %rdx
	movq	-32(%rbp), %rcx
	movq	-24(%rbp), %rax
	movq	%rcx, %rdi
	movq	%rax, %rsi
	call	_ZSt5printIJdEEvSt19basic_format_stringIcJDpNSt13type_identityIT_E4typeEEEDpOS2_
	movl	-68(%rbp), %eax
	addl	$1, %eax
	movl	%eax, -68(%rbp)
.L349:
	movl	-68(%rbp), %eax
	cmpl	$9, %eax
	jle	.L350
	movl	$0, %eax
	leave
	.cfi_def_cfa 7, 8
	ret
	.cfi_endproc
.LFE4791:
	.size	main, .-main
	.section	.rodata
.LC11:
	.string	"2 <= __base && __base <= 36"
	.align 8
.LC12:
	.string	"constexpr std::to_chars_result std::__to_chars_i(char*, char*, _Tp, int) [with _Tp = unsigned char]"
.LC13:
	.string	"/usr/include/c++/15/charconv"
	.section	.text._ZSt12__to_chars_iIhESt15to_chars_resultPcS1_T_i,"axG",@progbits,_ZSt12__to_chars_iIhESt15to_chars_resultPcS1_T_i,comdat
	.weak	_ZSt12__to_chars_iIhESt15to_chars_resultPcS1_T_i
	.type	_ZSt12__to_chars_iIhESt15to_chars_resultPcS1_T_i, @function
_ZSt12__to_chars_iIhESt15to_chars_resultPcS1_T_i:
.LFB4872:
	.cfi_startproc
	pushq	%rbp
	.cfi_def_cfa_offset 16
	.cfi_offset 6, -16
	movq	%rsp, %rbp
	.cfi_def_cfa_register 6
	subq	$48, %rsp
	movq	%rdi, -24(%rbp)
	movq	%rsi, -32(%rbp)
	movl	%edx, %eax
	movl	%ecx, -40(%rbp)
	movb	%al, -36(%rbp)
	cmpl	$1, -40(%rbp)
	setle	%al
	movzbl	%al, %eax
	testq	%rax, %rax
	jne	.L353
	cmpl	$36, -40(%rbp)
	setg	%al
	movzbl	%al, %eax
	testq	%rax, %rax
	je	.L354
.L353:
	movl	$1, %eax
	jmp	.L355
.L354:
	movl	$0, %eax
.L355:
	movzbl	%al, %eax
	testq	%rax, %rax
	je	.L356
	movl	$.LC11, %ecx
	movl	$.LC12, %edx
	movl	$326, %esi
	movl	$.LC13, %edi
	call	_ZSt21__glibcxx_assert_failPKciS0_S0_
.L356:
	movzbl	-36(%rbp), %eax
	movl	%eax, -4(%rbp)
	movq	-24(%rbp), %rax
	cmpq	-32(%rbp), %rax
	jb	.L357
	movq	-32(%rbp), %r8
	movq	%r9, %rdx
	movabsq	$-4294967296, %rax
	andq	%rdx, %rax
	orq	$75, %rax
	movq	%rax, %r9
	jmp	.L358
.L357:
	cmpb	$0, -36(%rbp)
	jne	.L359
	movq	-24(%rbp), %rax
	movb	$48, (%rax)
	movq	-24(%rbp), %rax
	addq	$1, %rax
	movq	%rax, %r8
	movq	%r9, %rdx
	movabsq	$-4294967296, %rax
	andq	%rdx, %rax
	movq	%rax, %r9
	jmp	.L358
.L359:
	cmpl	$16, -40(%rbp)
	je	.L360
	cmpl	$16, -40(%rbp)
	jg	.L361
	cmpl	$10, -40(%rbp)
	je	.L362
	cmpl	$10, -40(%rbp)
	jg	.L361
	cmpl	$2, -40(%rbp)
	je	.L363
	cmpl	$8, -40(%rbp)
	je	.L364
	jmp	.L361
.L360:
	movl	-4(%rbp), %edx
	movq	-32(%rbp), %rcx
	movq	-24(%rbp), %rax
	movq	%rcx, %rsi
	movq	%rax, %rdi
	call	_ZNSt8__detail13__to_chars_16IjEESt15to_chars_resultPcS2_T_
	movq	%rax, %r8
	movq	%rdx, %r9
	jmp	.L358
.L362:
	movl	-4(%rbp), %edx
	movq	-32(%rbp), %rcx
	movq	-24(%rbp), %rax
	movq	%rcx, %rsi
	movq	%rax, %rdi
	call	_ZNSt8__detail13__to_chars_10IjEESt15to_chars_resultPcS2_T_
	movq	%rax, %r8
	movq	%rdx, %r9
	jmp	.L358
.L364:
	movl	-4(%rbp), %edx
	movq	-32(%rbp), %rcx
	movq	-24(%rbp), %rax
	movq	%rcx, %rsi
	movq	%rax, %rdi
	call	_ZNSt8__detail12__to_chars_8IjEESt15to_chars_resultPcS2_T_
	movq	%rax, %r8
	movq	%rdx, %r9
	jmp	.L358
.L363:
	movl	-4(%rbp), %edx
	movq	-32(%rbp), %rcx
	movq	-24(%rbp), %rax
	movq	%rcx, %rsi
	movq	%rax, %rdi
	call	_ZNSt8__detail12__to_chars_2IjEESt15to_chars_resultPcS2_T_
	movq	%rax, %r8
	movq	%rdx, %r9
	jmp	.L358
.L361:
	movl	-40(%rbp), %ecx
	movl	-4(%rbp), %edx
	movq	-32(%rbp), %rsi
	movq	-24(%rbp), %rax
	movq	%rax, %rdi
	call	_ZNSt8__detail10__to_charsIjEESt15to_chars_resultPcS2_T_i
	movq	%rax, %r8
	movq	%rdx, %r9
	nop
.L358:
	movq	%r8, %rax
	movq	%r9, %rdx
	leave
	.cfi_def_cfa 7, 8
	ret
	.cfi_endproc
.LFE4872:
	.size	_ZSt12__to_chars_iIhESt15to_chars_resultPcS1_T_i, .-_ZSt12__to_chars_iIhESt15to_chars_resultPcS1_T_i
	.section	.rodata
	.align 8
.LC14:
	.string	"constexpr std::to_chars_result std::__to_chars_i(char*, char*, _Tp, int) [with _Tp = unsigned int]"
	.section	.text._ZSt12__to_chars_iIjESt15to_chars_resultPcS1_T_i,"axG",@progbits,_ZSt12__to_chars_iIjESt15to_chars_resultPcS1_T_i,comdat
	.weak	_ZSt12__to_chars_iIjESt15to_chars_resultPcS1_T_i
	.type	_ZSt12__to_chars_iIjESt15to_chars_resultPcS1_T_i, @function
_ZSt12__to_chars_iIjESt15to_chars_resultPcS1_T_i:
.LFB4876:
	.cfi_startproc
	pushq	%rbp
	.cfi_def_cfa_offset 16
	.cfi_offset 6, -16
	movq	%rsp, %rbp
	.cfi_def_cfa_register 6
	subq	$48, %rsp
	movq	%rdi, -24(%rbp)
	movq	%rsi, -32(%rbp)
	movl	%edx, -36(%rbp)
	movl	%ecx, -40(%rbp)
	cmpl	$1, -40(%rbp)
	setle	%al
	movzbl	%al, %eax
	testq	%rax, %rax
	jne	.L366
	cmpl	$36, -40(%rbp)
	setg	%al
	movzbl	%al, %eax
	testq	%rax, %rax
	je	.L367
.L366:
	movl	$1, %eax
	jmp	.L368
.L367:
	movl	$0, %eax
.L368:
	movzbl	%al, %eax
	testq	%rax, %rax
	je	.L369
	movl	$.LC11, %ecx
	movl	$.LC14, %edx
	movl	$326, %esi
	movl	$.LC13, %edi
	call	_ZSt21__glibcxx_assert_failPKciS0_S0_
.L369:
	movl	-36(%rbp), %eax
	movl	%eax, -4(%rbp)
	movq	-24(%rbp), %rax
	cmpq	-32(%rbp), %rax
	jb	.L370
	movq	-32(%rbp), %r8
	movq	%r9, %rdx
	movabsq	$-4294967296, %rax
	andq	%rdx, %rax
	orq	$75, %rax
	movq	%rax, %r9
	jmp	.L371
.L370:
	cmpl	$0, -36(%rbp)
	jne	.L372
	movq	-24(%rbp), %rax
	movb	$48, (%rax)
	movq	-24(%rbp), %rax
	addq	$1, %rax
	movq	%rax, %r8
	movq	%r9, %rdx
	movabsq	$-4294967296, %rax
	andq	%rdx, %rax
	movq	%rax, %r9
	jmp	.L371
.L372:
	cmpl	$16, -40(%rbp)
	je	.L373
	cmpl	$16, -40(%rbp)
	jg	.L374
	cmpl	$10, -40(%rbp)
	je	.L375
	cmpl	$10, -40(%rbp)
	jg	.L374
	cmpl	$2, -40(%rbp)
	je	.L376
	cmpl	$8, -40(%rbp)
	je	.L377
	jmp	.L374
.L373:
	movl	-4(%rbp), %edx
	movq	-32(%rbp), %rcx
	movq	-24(%rbp), %rax
	movq	%rcx, %rsi
	movq	%rax, %rdi
	call	_ZNSt8__detail13__to_chars_16IjEESt15to_chars_resultPcS2_T_
	movq	%rax, %r8
	movq	%rdx, %r9
	jmp	.L371
.L375:
	movl	-4(%rbp), %edx
	movq	-32(%rbp), %rcx
	movq	-24(%rbp), %rax
	movq	%rcx, %rsi
	movq	%rax, %rdi
	call	_ZNSt8__detail13__to_chars_10IjEESt15to_chars_resultPcS2_T_
	movq	%rax, %r8
	movq	%rdx, %r9
	jmp	.L371
.L377:
	movl	-4(%rbp), %edx
	movq	-32(%rbp), %rcx
	movq	-24(%rbp), %rax
	movq	%rcx, %rsi
	movq	%rax, %rdi
	call	_ZNSt8__detail12__to_chars_8IjEESt15to_chars_resultPcS2_T_
	movq	%rax, %r8
	movq	%rdx, %r9
	jmp	.L371
.L376:
	movl	-4(%rbp), %edx
	movq	-32(%rbp), %rcx
	movq	-24(%rbp), %rax
	movq	%rcx, %rsi
	movq	%rax, %rdi
	call	_ZNSt8__detail12__to_chars_2IjEESt15to_chars_resultPcS2_T_
	movq	%rax, %r8
	movq	%rdx, %r9
	jmp	.L371
.L374:
	movl	-40(%rbp), %ecx
	movl	-4(%rbp), %edx
	movq	-32(%rbp), %rsi
	movq	-24(%rbp), %rax
	movq	%rax, %rdi
	call	_ZNSt8__detail10__to_charsIjEESt15to_chars_resultPcS2_T_i
	movq	%rax, %r8
	movq	%rdx, %r9
	nop
.L371:
	movq	%r8, %rax
	movq	%r9, %rdx
	leave
	.cfi_def_cfa 7, 8
	ret
	.cfi_endproc
.LFE4876:
	.size	_ZSt12__to_chars_iIjESt15to_chars_resultPcS1_T_i, .-_ZSt12__to_chars_iIjESt15to_chars_resultPcS1_T_i
	.section	.rodata
	.align 8
.LC15:
	.string	"constexpr std::to_chars_result std::__to_chars_i(char*, char*, _Tp, int) [with _Tp = long unsigned int]"
	.section	.text._ZSt12__to_chars_iImESt15to_chars_resultPcS1_T_i,"axG",@progbits,_ZSt12__to_chars_iImESt15to_chars_resultPcS1_T_i,comdat
	.weak	_ZSt12__to_chars_iImESt15to_chars_resultPcS1_T_i
	.type	_ZSt12__to_chars_iImESt15to_chars_resultPcS1_T_i, @function
_ZSt12__to_chars_iImESt15to_chars_resultPcS1_T_i:
.LFB4878:
	.cfi_startproc
	pushq	%rbp
	.cfi_def_cfa_offset 16
	.cfi_offset 6, -16
	movq	%rsp, %rbp
	.cfi_def_cfa_register 6
	subq	$48, %rsp
	movq	%rdi, -24(%rbp)
	movq	%rsi, -32(%rbp)
	movq	%rdx, -40(%rbp)
	movl	%ecx, -44(%rbp)
	cmpl	$1, -44(%rbp)
	setle	%al
	movzbl	%al, %eax
	testq	%rax, %rax
	jne	.L379
	cmpl	$36, -44(%rbp)
	setg	%al
	movzbl	%al, %eax
	testq	%rax, %rax
	je	.L380
.L379:
	movl	$1, %eax
	jmp	.L381
.L380:
	movl	$0, %eax
.L381:
	movzbl	%al, %eax
	testq	%rax, %rax
	je	.L382
	movl	$.LC11, %ecx
	movl	$.LC15, %edx
	movl	$326, %esi
	movl	$.LC13, %edi
	call	_ZSt21__glibcxx_assert_failPKciS0_S0_
.L382:
	movq	-40(%rbp), %rax
	movq	%rax, -8(%rbp)
	movq	-24(%rbp), %rax
	cmpq	-32(%rbp), %rax
	jb	.L383
	movq	-32(%rbp), %r8
	movq	%r9, %rdx
	movabsq	$-4294967296, %rax
	andq	%rdx, %rax
	orq	$75, %rax
	movq	%rax, %r9
	jmp	.L384
.L383:
	cmpq	$0, -40(%rbp)
	jne	.L385
	movq	-24(%rbp), %rax
	movb	$48, (%rax)
	movq	-24(%rbp), %rax
	addq	$1, %rax
	movq	%rax, %r8
	movq	%r9, %rdx
	movabsq	$-4294967296, %rax
	andq	%rdx, %rax
	movq	%rax, %r9
	jmp	.L384
.L385:
	cmpl	$16, -44(%rbp)
	je	.L386
	cmpl	$16, -44(%rbp)
	jg	.L387
	cmpl	$10, -44(%rbp)
	je	.L388
	cmpl	$10, -44(%rbp)
	jg	.L387
	cmpl	$2, -44(%rbp)
	je	.L389
	cmpl	$8, -44(%rbp)
	je	.L390
	jmp	.L387
.L386:
	movq	-8(%rbp), %rdx
	movq	-32(%rbp), %rcx
	movq	-24(%rbp), %rax
	movq	%rcx, %rsi
	movq	%rax, %rdi
	call	_ZNSt8__detail13__to_chars_16ImEESt15to_chars_resultPcS2_T_
	movq	%rax, %r8
	movq	%rdx, %r9
	jmp	.L384
.L388:
	movq	-8(%rbp), %rdx
	movq	-32(%rbp), %rcx
	movq	-24(%rbp), %rax
	movq	%rcx, %rsi
	movq	%rax, %rdi
	call	_ZNSt8__detail13__to_chars_10ImEESt15to_chars_resultPcS2_T_
	movq	%rax, %r8
	movq	%rdx, %r9
	jmp	.L384
.L390:
	movq	-8(%rbp), %rdx
	movq	-32(%rbp), %rcx
	movq	-24(%rbp), %rax
	movq	%rcx, %rsi
	movq	%rax, %rdi
	call	_ZNSt8__detail12__to_chars_8ImEESt15to_chars_resultPcS2_T_
	movq	%rax, %r8
	movq	%rdx, %r9
	jmp	.L384
.L389:
	movq	-8(%rbp), %rdx
	movq	-32(%rbp), %rcx
	movq	-24(%rbp), %rax
	movq	%rcx, %rsi
	movq	%rax, %rdi
	call	_ZNSt8__detail12__to_chars_2ImEESt15to_chars_resultPcS2_T_
	movq	%rax, %r8
	movq	%rdx, %r9
	jmp	.L384
.L387:
	movl	-44(%rbp), %ecx
	movq	-8(%rbp), %rdx
	movq	-32(%rbp), %rsi
	movq	-24(%rbp), %rax
	movq	%rax, %rdi
	call	_ZNSt8__detail10__to_charsImEESt15to_chars_resultPcS2_T_i
	movq	%rax, %r8
	movq	%rdx, %r9
	nop
.L384:
	movq	%r8, %rax
	movq	%r9, %rdx
	leave
	.cfi_def_cfa 7, 8
	ret
	.cfi_endproc
.LFE4878:
	.size	_ZSt12__to_chars_iImESt15to_chars_resultPcS1_T_i, .-_ZSt12__to_chars_iImESt15to_chars_resultPcS1_T_i
	.section	.rodata
	.align 8
.LC16:
	.string	"constexpr std::to_chars_result std::__to_chars_i(char*, char*, _Tp, int) [with _Tp = long long unsigned int]"
	.section	.text._ZSt12__to_chars_iIyESt15to_chars_resultPcS1_T_i,"axG",@progbits,_ZSt12__to_chars_iIyESt15to_chars_resultPcS1_T_i,comdat
	.weak	_ZSt12__to_chars_iIyESt15to_chars_resultPcS1_T_i
	.type	_ZSt12__to_chars_iIyESt15to_chars_resultPcS1_T_i, @function
_ZSt12__to_chars_iIyESt15to_chars_resultPcS1_T_i:
.LFB4880:
	.cfi_startproc
	pushq	%rbp
	.cfi_def_cfa_offset 16
	.cfi_offset 6, -16
	movq	%rsp, %rbp
	.cfi_def_cfa_register 6
	subq	$48, %rsp
	movq	%rdi, -24(%rbp)
	movq	%rsi, -32(%rbp)
	movq	%rdx, -40(%rbp)
	movl	%ecx, -44(%rbp)
	cmpl	$1, -44(%rbp)
	setle	%al
	movzbl	%al, %eax
	testq	%rax, %rax
	jne	.L392
	cmpl	$36, -44(%rbp)
	setg	%al
	movzbl	%al, %eax
	testq	%rax, %rax
	je	.L393
.L392:
	movl	$1, %eax
	jmp	.L394
.L393:
	movl	$0, %eax
.L394:
	movzbl	%al, %eax
	testq	%rax, %rax
	je	.L395
	movl	$.LC11, %ecx
	movl	$.LC16, %edx
	movl	$326, %esi
	movl	$.LC13, %edi
	call	_ZSt21__glibcxx_assert_failPKciS0_S0_
.L395:
	movq	-40(%rbp), %rax
	movq	%rax, -8(%rbp)
	movq	-24(%rbp), %rax
	cmpq	-32(%rbp), %rax
	jb	.L396
	movq	-32(%rbp), %r8
	movq	%r9, %rdx
	movabsq	$-4294967296, %rax
	andq	%rdx, %rax
	orq	$75, %rax
	movq	%rax, %r9
	jmp	.L397
.L396:
	cmpq	$0, -40(%rbp)
	jne	.L398
	movq	-24(%rbp), %rax
	movb	$48, (%rax)
	movq	-24(%rbp), %rax
	addq	$1, %rax
	movq	%rax, %r8
	movq	%r9, %rdx
	movabsq	$-4294967296, %rax
	andq	%rdx, %rax
	movq	%rax, %r9
	jmp	.L397
.L398:
	cmpl	$16, -44(%rbp)
	je	.L399
	cmpl	$16, -44(%rbp)
	jg	.L400
	cmpl	$10, -44(%rbp)
	je	.L401
	cmpl	$10, -44(%rbp)
	jg	.L400
	cmpl	$2, -44(%rbp)
	je	.L402
	cmpl	$8, -44(%rbp)
	je	.L403
	jmp	.L400
.L399:
	movq	-8(%rbp), %rdx
	movq	-32(%rbp), %rcx
	movq	-24(%rbp), %rax
	movq	%rcx, %rsi
	movq	%rax, %rdi
	call	_ZNSt8__detail13__to_chars_16ImEESt15to_chars_resultPcS2_T_
	movq	%rax, %r8
	movq	%rdx, %r9
	jmp	.L397
.L401:
	movq	-8(%rbp), %rdx
	movq	-32(%rbp), %rcx
	movq	-24(%rbp), %rax
	movq	%rcx, %rsi
	movq	%rax, %rdi
	call	_ZNSt8__detail13__to_chars_10ImEESt15to_chars_resultPcS2_T_
	movq	%rax, %r8
	movq	%rdx, %r9
	jmp	.L397
.L403:
	movq	-8(%rbp), %rdx
	movq	-32(%rbp), %rcx
	movq	-24(%rbp), %rax
	movq	%rcx, %rsi
	movq	%rax, %rdi
	call	_ZNSt8__detail12__to_chars_8ImEESt15to_chars_resultPcS2_T_
	movq	%rax, %r8
	movq	%rdx, %r9
	jmp	.L397
.L402:
	movq	-8(%rbp), %rdx
	movq	-32(%rbp), %rcx
	movq	-24(%rbp), %rax
	movq	%rcx, %rsi
	movq	%rax, %rdi
	call	_ZNSt8__detail12__to_chars_2ImEESt15to_chars_resultPcS2_T_
	movq	%rax, %r8
	movq	%rdx, %r9
	jmp	.L397
.L400:
	movl	-44(%rbp), %ecx
	movq	-8(%rbp), %rdx
	movq	-32(%rbp), %rsi
	movq	-24(%rbp), %rax
	movq	%rax, %rdi
	call	_ZNSt8__detail10__to_charsImEESt15to_chars_resultPcS2_T_i
	movq	%rax, %r8
	movq	%rdx, %r9
	nop
.L397:
	movq	%r8, %rax
	movq	%r9, %rdx
	leave
	.cfi_def_cfa 7, 8
	ret
	.cfi_endproc
.LFE4880:
	.size	_ZSt12__to_chars_iIyESt15to_chars_resultPcS1_T_i, .-_ZSt12__to_chars_iIyESt15to_chars_resultPcS1_T_i
	.section	.text._ZSt13__countl_zeroIjEiT_,"axG",@progbits,_ZSt13__countl_zeroIjEiT_,comdat
	.weak	_ZSt13__countl_zeroIjEiT_
	.type	_ZSt13__countl_zeroIjEiT_, @function
_ZSt13__countl_zeroIjEiT_:
.LFB4881:
	.cfi_startproc
	pushq	%rbp
	.cfi_def_cfa_offset 16
	.cfi_offset 6, -16
	movq	%rsp, %rbp
	.cfi_def_cfa_register 6
	movl	%edi, -20(%rbp)
	movl	$32, -4(%rbp)
	movl	-20(%rbp), %eax
	testl	%eax, %eax
	je	.L405
	bsrl	%eax, %eax
	xorl	$31, %eax
	jmp	.L407
.L405:
	movl	$32, %eax
.L407:
	popq	%rbp
	.cfi_def_cfa 7, 8
	ret
	.cfi_endproc
.LFE4881:
	.size	_ZSt13__countl_zeroIjEiT_, .-_ZSt13__countl_zeroIjEiT_
	.section	.text._ZSt12construct_atIcJRKcEQaant20is_unbounded_array_vIT_ErqXgsnwcvPvLi0E_S2_pispcl7declvalIT0_EEEEEPS2_S5_DpOS4_,"axG",@progbits,_ZSt12construct_atIcJRKcEQaant20is_unbounded_array_vIT_ErqXgsnwcvPvLi0E_S2_pispcl7declvalIT0_EEEEEPS2_S5_DpOS4_,comdat
	.weak	_ZSt12construct_atIcJRKcEQaant20is_unbounded_array_vIT_ErqXgsnwcvPvLi0E_S2_pispcl7declvalIT0_EEEEEPS2_S5_DpOS4_
	.type	_ZSt12construct_atIcJRKcEQaant20is_unbounded_array_vIT_ErqXgsnwcvPvLi0E_S2_pispcl7declvalIT0_EEEEEPS2_S5_DpOS4_, @function
_ZSt12construct_atIcJRKcEQaant20is_unbounded_array_vIT_ErqXgsnwcvPvLi0E_S2_pispcl7declvalIT0_EEEEEPS2_S5_DpOS4_:
.LFB4882:
	.cfi_startproc
	pushq	%rbp
	.cfi_def_cfa_offset 16
	.cfi_offset 6, -16
	movq	%rsp, %rbp
	.cfi_def_cfa_register 6
	pushq	%r12
	pushq	%rbx
	subq	$32, %rsp
	.cfi_offset 12, -24
	.cfi_offset 3, -32
	movq	%rdi, -40(%rbp)
	movq	%rsi, -48(%rbp)
	movq	-40(%rbp), %rax
	movq	%rax, -24(%rbp)
	movq	-24(%rbp), %r12
	movq	%r12, %rsi
	movl	$1, %edi
	call	_ZnwmPv
	movq	%rax, %rbx
	movq	-48(%rbp), %rax
	movq	%rax, -32(%rbp)
	movq	-32(%rbp), %rax
	movzbl	(%rax), %eax
	movb	%al, (%rbx)
	movl	$0, %eax
	testb	%al, %al
	je	.L411
	movq	%r12, %rsi
	movq	%rbx, %rdi
	call	_ZdlPvS_
.L411:
	movq	%rbx, %rax
	addq	$32, %rsp
	popq	%rbx
	popq	%r12
	popq	%rbp
	.cfi_def_cfa 7, 8
	ret
	.cfi_endproc
.LFE4882:
	.size	_ZSt12construct_atIcJRKcEQaant20is_unbounded_array_vIT_ErqXgsnwcvPvLi0E_S2_pispcl7declvalIT0_EEEEEPS2_S5_DpOS4_, .-_ZSt12construct_atIcJRKcEQaant20is_unbounded_array_vIT_ErqXgsnwcvPvLi0E_S2_pispcl7declvalIT0_EEEEEPS2_S5_DpOS4_
	.weak	_ZSt12construct_atIcJRKcEEPT_S3_DpOT0_
	.set	_ZSt12construct_atIcJRKcEEPT_S3_DpOT0_,_ZSt12construct_atIcJRKcEQaant20is_unbounded_array_vIT_ErqXgsnwcvPvLi0E_S2_pispcl7declvalIT0_EEEEEPS2_S5_DpOS4_
	.section	.text._ZN9__gnu_cxx11char_traitsIcE4moveEPcPKcm,"axG",@progbits,_ZN9__gnu_cxx11char_traitsIcE4moveEPcPKcm,comdat
	.align 2
	.weak	_ZN9__gnu_cxx11char_traitsIcE4moveEPcPKcm
	.type	_ZN9__gnu_cxx11char_traitsIcE4moveEPcPKcm, @function
_ZN9__gnu_cxx11char_traitsIcE4moveEPcPKcm:
.LFB4883:
	.cfi_startproc
	pushq	%rbp
	.cfi_def_cfa_offset 16
	.cfi_offset 6, -16
	movq	%rsp, %rbp
	.cfi_def_cfa_register 6
	subq	$32, %rsp
	movq	%rdi, -8(%rbp)
	movq	%rsi, -16(%rbp)
	movq	%rdx, -24(%rbp)
	cmpq	$0, -24(%rbp)
	jne	.L413
	movq	-8(%rbp), %rax
	jmp	.L414
.L413:
	movl	$0, %eax
	testb	%al, %al
	je	.L416
	movq	-24(%rbp), %rdx
	movq	-16(%rbp), %rcx
	movq	-8(%rbp), %rax
	movq	%rcx, %rsi
	movq	%rax, %rdi
	call	_ZN9__gnu_cxx11char_traitsIcE4copyEPcPKcm
	movq	-8(%rbp), %rax
	jmp	.L414
.L416:
	movq	-24(%rbp), %rdx
	movq	-16(%rbp), %rcx
	movq	-8(%rbp), %rax
	movq	%rcx, %rsi
	movq	%rax, %rdi
	call	memmove
	movq	-8(%rbp), %rax
.L414:
	leave
	.cfi_def_cfa 7, 8
	ret
	.cfi_endproc
.LFE4883:
	.size	_ZN9__gnu_cxx11char_traitsIcE4moveEPcPKcm, .-_ZN9__gnu_cxx11char_traitsIcE4moveEPcPKcm
	.section	.text._ZN9__gnu_cxx11char_traitsIcE4copyEPcPKcm,"axG",@progbits,_ZN9__gnu_cxx11char_traitsIcE4copyEPcPKcm,comdat
	.align 2
	.weak	_ZN9__gnu_cxx11char_traitsIcE4copyEPcPKcm
	.type	_ZN9__gnu_cxx11char_traitsIcE4copyEPcPKcm, @function
_ZN9__gnu_cxx11char_traitsIcE4copyEPcPKcm:
.LFB4884:
	.cfi_startproc
	pushq	%rbp
	.cfi_def_cfa_offset 16
	.cfi_offset 6, -16
	movq	%rsp, %rbp
	.cfi_def_cfa_register 6
	subq	$48, %rsp
	movq	%rdi, -24(%rbp)
	movq	%rsi, -32(%rbp)
	movq	%rdx, -40(%rbp)
	cmpq	$0, -40(%rbp)
	jne	.L418
	movq	-24(%rbp), %rax
	jmp	.L419
.L418:
	movl	$0, %eax
	testb	%al, %al
	je	.L421
	movq	$0, -8(%rbp)
	jmp	.L422
.L423:
	movq	-32(%rbp), %rdx
	movq	-8(%rbp), %rax
	addq	%rax, %rdx
	movq	-24(%rbp), %rcx
	movq	-8(%rbp), %rax
	addq	%rcx, %rax
	movq	%rdx, %rsi
	movq	%rax, %rdi
	call	_ZSt12construct_atIcJRKcEQaant20is_unbounded_array_vIT_ErqXgsnwcvPvLi0E_S2_pispcl7declvalIT0_EEEEEPS2_S5_DpOS4_
	addq	$1, -8(%rbp)
.L422:
	movq	-8(%rbp), %rax
	cmpq	-40(%rbp), %rax
	jb	.L423
	movq	-24(%rbp), %rax
	jmp	.L419
.L421:
	movq	-24(%rbp), %rdx
	movq	-32(%rbp), %rax
	movq	%rdx, %rcx
	movq	%rax, %rsi
	movq	-40(%rbp), %rax
	movq	%rax, %rdx
	movq	%rcx, %rdi
	call	memcpy
	movq	-24(%rbp), %rax
.L419:
	leave
	.cfi_def_cfa 7, 8
	ret
	.cfi_endproc
.LFE4884:
	.size	_ZN9__gnu_cxx11char_traitsIcE4copyEPcPKcm, .-_ZN9__gnu_cxx11char_traitsIcE4copyEPcPKcm
	.section	.text._ZN9__gnu_cxx11char_traitsIcE6assignEPcmc,"axG",@progbits,_ZN9__gnu_cxx11char_traitsIcE6assignEPcmc,comdat
	.align 2
	.weak	_ZN9__gnu_cxx11char_traitsIcE6assignEPcmc
	.type	_ZN9__gnu_cxx11char_traitsIcE6assignEPcmc, @function
_ZN9__gnu_cxx11char_traitsIcE6assignEPcmc:
.LFB4885:
	.cfi_startproc
	pushq	%rbp
	.cfi_def_cfa_offset 16
	.cfi_offset 6, -16
	movq	%rsp, %rbp
	.cfi_def_cfa_register 6
	subq	$48, %rsp
	movq	%rdi, -24(%rbp)
	movq	%rsi, -32(%rbp)
	movl	%edx, %eax
	movb	%al, -36(%rbp)
	movl	$0, %eax
	testb	%al, %al
	je	.L426
	movq	$0, -8(%rbp)
	jmp	.L427
.L428:
	movq	-24(%rbp), %rdx
	movq	-8(%rbp), %rax
	addq	%rax, %rdx
	leaq	-36(%rbp), %rax
	movq	%rax, %rsi
	movq	%rdx, %rdi
	call	_ZSt12construct_atIcJRcEQaant20is_unbounded_array_vIT_ErqXgsnwcvPvLi0E_S1_pispcl7declvalIT0_EEEEEPS1_S4_DpOS3_
	addq	$1, -8(%rbp)
.L427:
	movq	-8(%rbp), %rax
	cmpq	-32(%rbp), %rax
	jb	.L428
	movq	-24(%rbp), %rax
	jmp	.L429
.L426:
	cmpq	$0, -32(%rbp)
	je	.L430
	movzbl	-36(%rbp), %eax
	movb	%al, -9(%rbp)
	movzbl	-9(%rbp), %eax
	movzbl	%al, %ecx
	movq	-32(%rbp), %rdx
	movq	-24(%rbp), %rax
	movl	%ecx, %esi
	movq	%rax, %rdi
	call	memset
.L430:
	movq	-24(%rbp), %rax
.L429:
	leave
	.cfi_def_cfa 7, 8
	ret
	.cfi_endproc
.LFE4885:
	.size	_ZN9__gnu_cxx11char_traitsIcE6assignEPcmc, .-_ZN9__gnu_cxx11char_traitsIcE6assignEPcmc
	.section	.text._ZNKSt17basic_string_viewIcSt11char_traitsIcEE4dataEv,"axG",@progbits,_ZNKSt17basic_string_viewIcSt11char_traitsIcEE4dataEv,comdat
	.align 2
	.weak	_ZNKSt17basic_string_viewIcSt11char_traitsIcEE4dataEv
	.type	_ZNKSt17basic_string_viewIcSt11char_traitsIcEE4dataEv, @function
_ZNKSt17basic_string_viewIcSt11char_traitsIcEE4dataEv:
.LFB4911:
	.cfi_startproc
	pushq	%rbp
	.cfi_def_cfa_offset 16
	.cfi_offset 6, -16
	movq	%rsp, %rbp
	.cfi_def_cfa_register 6
	movq	%rdi, -8(%rbp)
	movq	-8(%rbp), %rax
	movq	8(%rax), %rax
	popq	%rbp
	.cfi_def_cfa 7, 8
	ret
	.cfi_endproc
.LFE4911:
	.size	_ZNKSt17basic_string_viewIcSt11char_traitsIcEE4dataEv, .-_ZNKSt17basic_string_viewIcSt11char_traitsIcEE4dataEv
	.section	.text._ZNSt17basic_string_viewIcSt11char_traitsIcEEC2EPKcm,"axG",@progbits,_ZNSt17basic_string_viewIcSt11char_traitsIcEEC5EPKcm,comdat
	.align 2
	.weak	_ZNSt17basic_string_viewIcSt11char_traitsIcEEC2EPKcm
	.type	_ZNSt17basic_string_viewIcSt11char_traitsIcEEC2EPKcm, @function
_ZNSt17basic_string_viewIcSt11char_traitsIcEEC2EPKcm:
.LFB4922:
	.cfi_startproc
	pushq	%rbp
	.cfi_def_cfa_offset 16
	.cfi_offset 6, -16
	movq	%rsp, %rbp
	.cfi_def_cfa_register 6
	movq	%rdi, -8(%rbp)
	movq	%rsi, -16(%rbp)
	movq	%rdx, -24(%rbp)
	movq	-8(%rbp), %rax
	movq	-24(%rbp), %rdx
	movq	%rdx, (%rax)
	movq	-8(%rbp), %rax
	movq	-16(%rbp), %rdx
	movq	%rdx, 8(%rax)
	nop
	popq	%rbp
	.cfi_def_cfa 7, 8
	ret
	.cfi_endproc
.LFE4922:
	.size	_ZNSt17basic_string_viewIcSt11char_traitsIcEEC2EPKcm, .-_ZNSt17basic_string_viewIcSt11char_traitsIcEEC2EPKcm
	.weak	_ZNSt17basic_string_viewIcSt11char_traitsIcEEC1EPKcm
	.set	_ZNSt17basic_string_viewIcSt11char_traitsIcEEC1EPKcm,_ZNSt17basic_string_viewIcSt11char_traitsIcEEC2EPKcm
	.section	.text._ZNSt7__cxx1112basic_stringIcSt11char_traitsIcESaIcEE13_M_set_lengthEm,"axG",@progbits,_ZNSt7__cxx1112basic_stringIcSt11char_traitsIcESaIcEE13_M_set_lengthEm,comdat
	.align 2
	.weak	_ZNSt7__cxx1112basic_stringIcSt11char_traitsIcESaIcEE13_M_set_lengthEm
	.type	_ZNSt7__cxx1112basic_stringIcSt11char_traitsIcESaIcEE13_M_set_lengthEm, @function
_ZNSt7__cxx1112basic_stringIcSt11char_traitsIcESaIcEE13_M_set_lengthEm:
.LFB5009:
	.cfi_startproc
	pushq	%rbp
	.cfi_def_cfa_offset 16
	.cfi_offset 6, -16
	movq	%rsp, %rbp
	.cfi_def_cfa_register 6
	subq	$32, %rsp
	movq	%rdi, -24(%rbp)
	movq	%rsi, -32(%rbp)
	movq	-32(%rbp), %rdx
	movq	-24(%rbp), %rax
	movq	%rdx, %rsi
	movq	%rax, %rdi
	call	_ZNSt7__cxx1112basic_stringIcSt11char_traitsIcESaIcEE9_M_lengthEm
	movb	$0, -1(%rbp)
	movq	-24(%rbp), %rax
	movq	%rax, %rdi
	call	_ZNKSt7__cxx1112basic_stringIcSt11char_traitsIcESaIcEE7_M_dataEv
	movq	-32(%rbp), %rdx
	addq	%rax, %rdx
	leaq	-1(%rbp), %rax
	movq	%rax, %rsi
	movq	%rdx, %rdi
	call	_ZNSt11char_traitsIcE6assignERcRKc
	nop
	leave
	.cfi_def_cfa 7, 8
	ret
	.cfi_endproc
.LFE5009:
	.size	_ZNSt7__cxx1112basic_stringIcSt11char_traitsIcESaIcEE13_M_set_lengthEm, .-_ZNSt7__cxx1112basic_stringIcSt11char_traitsIcESaIcEE13_M_set_lengthEm
	.section	.text._ZNSt7__cxx1112basic_stringIcSt11char_traitsIcESaIcEED2Ev,"axG",@progbits,_ZNSt7__cxx1112basic_stringIcSt11char_traitsIcESaIcEED5Ev,comdat
	.align 2
	.weak	_ZNSt7__cxx1112basic_stringIcSt11char_traitsIcESaIcEED2Ev
	.type	_ZNSt7__cxx1112basic_stringIcSt11char_traitsIcESaIcEED2Ev, @function
_ZNSt7__cxx1112basic_stringIcSt11char_traitsIcESaIcEED2Ev:
.LFB5011:
	.cfi_startproc
	.cfi_personality 0x3,__gxx_personality_v0
	.cfi_lsda 0x3,.LLSDA5011
	pushq	%rbp
	.cfi_def_cfa_offset 16
	.cfi_offset 6, -16
	movq	%rsp, %rbp
	.cfi_def_cfa_register 6
	subq	$16, %rsp
	movq	%rdi, -8(%rbp)
	movq	-8(%rbp), %rax
	movq	%rax, %rdi
	call	_ZNSt7__cxx1112basic_stringIcSt11char_traitsIcESaIcEE10_M_disposeEv
	movq	-8(%rbp), %rax
	movq	%rax, %rdi
	call	_ZNSt7__cxx1112basic_stringIcSt11char_traitsIcESaIcEE12_Alloc_hiderD1Ev
	nop
	leave
	.cfi_def_cfa 7, 8
	ret
	.cfi_endproc
.LFE5011:
	.section	.gcc_except_table._ZNSt7__cxx1112basic_stringIcSt11char_traitsIcESaIcEED2Ev,"aG",@progbits,_ZNSt7__cxx1112basic_stringIcSt11char_traitsIcESaIcEED5Ev,comdat
.LLSDA5011:
	.byte	0xff
	.byte	0xff
	.byte	0x1
	.uleb128 .LLSDACSE5011-.LLSDACSB5011
.LLSDACSB5011:
.LLSDACSE5011:
	.section	.text._ZNSt7__cxx1112basic_stringIcSt11char_traitsIcESaIcEED2Ev,"axG",@progbits,_ZNSt7__cxx1112basic_stringIcSt11char_traitsIcESaIcEED5Ev,comdat
	.size	_ZNSt7__cxx1112basic_stringIcSt11char_traitsIcESaIcEED2Ev, .-_ZNSt7__cxx1112basic_stringIcSt11char_traitsIcESaIcEED2Ev
	.weak	_ZNSt7__cxx1112basic_stringIcSt11char_traitsIcESaIcEED1Ev
	.set	_ZNSt7__cxx1112basic_stringIcSt11char_traitsIcESaIcEED1Ev,_ZNSt7__cxx1112basic_stringIcSt11char_traitsIcESaIcEED2Ev
	.section	.text._ZNSt8__detail18__to_chars_10_implIjEEvPcjT_,"axG",@progbits,_ZNSt8__detail18__to_chars_10_implIjEEvPcjT_,comdat
	.weak	_ZNSt8__detail18__to_chars_10_implIjEEvPcjT_
	.type	_ZNSt8__detail18__to_chars_10_implIjEEvPcjT_, @function
_ZNSt8__detail18__to_chars_10_implIjEEvPcjT_:
.LFB5013:
	.cfi_startproc
	pushq	%rbp
	.cfi_def_cfa_offset 16
	.cfi_offset 6, -16
	movq	%rsp, %rbp
	.cfi_def_cfa_register 6
	subq	$120, %rsp
	movq	%rdi, -232(%rbp)
	movl	%esi, -236(%rbp)
	movl	%edx, -240(%rbp)
	movabsq	$3688503277381496880, %rax
	movabsq	$3976738051646829616, %rdx
	movq	%rax, -224(%rbp)
	movq	%rdx, -216(%rbp)
	movabsq	$3544667369688283184, %rax
	movabsq	$3832902143785906737, %rdx
	movq	%rax, -208(%rbp)
	movq	%rdx, -200(%rbp)
	movabsq	$4121136918051239473, %rax
	movabsq	$3689066235924983858, %rdx
	movq	%rax, -192(%rbp)
	movq	%rdx, -184(%rbp)
	movabsq	$3977301010190316594, %rax
	movabsq	$3545230328231770162, %rdx
	movq	%rax, -176(%rbp)
	movq	%rdx, -168(%rbp)
	movabsq	$3833465102329393715, %rax
	movabsq	$4121699876594726451, %rdx
	movq	%rax, -160(%rbp)
	movq	%rdx, -152(%rbp)
	movabsq	$3689629194468470836, %rax
	movabsq	$3977863968733803572, %rdx
	movq	%rax, -144(%rbp)
	movq	%rdx, -136(%rbp)
	movabsq	$3545793286775257140, %rax
	movabsq	$3834028060872880693, %rdx
	movq	%rax, -128(%rbp)
	movq	%rdx, -120(%rbp)
	movabsq	$4122262835138213429, %rax
	movabsq	$3690192153011957814, %rdx
	movq	%rax, -112(%rbp)
	movq	%rdx, -104(%rbp)
	movabsq	$3978426927277290550, %rax
	movabsq	$3546356245318744118, %rdx
	movq	%rax, -96(%rbp)
	movq	%rdx, -88(%rbp)
	movabsq	$3834591019416367671, %rax
	movabsq	$4122825793681700407, %rdx
	movq	%rax, -80(%rbp)
	movq	%rdx, -72(%rbp)
	movabsq	$3690755111555444792, %rax
	movabsq	$3978989885820777528, %rdx
	movq	%rax, -64(%rbp)
	movq	%rdx, -56(%rbp)
	movabsq	$3546919203862231096, %rax
	movabsq	$3835153977959854649, %rdx
	movq	%rax, -48(%rbp)
	movq	%rdx, -40(%rbp)
	movabsq	$4122263930388298034, %rax
	movabsq	$16106987313379638, %rdx
	movq	%rax, -39(%rbp)
	movq	%rdx, -31(%rbp)
	movl	-236(%rbp), %eax
	subl	$1, %eax
	movl	%eax, -4(%rbp)
	jmp	.L437
.L438:
	movl	-240(%rbp), %ecx
	movl	%ecx, %eax
	imulq	$1374389535, %rax, %rax
	shrq	$32, %rax
	shrl	$5, %eax
	imull	$100, %eax, %edx
	movl	%ecx, %eax
	subl	%edx, %eax
	addl	%eax, %eax
	movl	%eax, -12(%rbp)
	movl	-240(%rbp), %eax
	movl	%eax, %eax
	imulq	$1374389535, %rax, %rax
	shrq	$32, %rax
	shrl	$5, %eax
	movl	%eax, -240(%rbp)
	movl	-12(%rbp), %eax
	leal	1(%rax), %ecx
	movl	-4(%rbp), %edx
	movq	-232(%rbp), %rax
	addq	%rax, %rdx
	movl	%ecx, %eax
	movzbl	-224(%rbp,%rax), %eax
	movb	%al, (%rdx)
	movl	-4(%rbp), %eax
	subl	$1, %eax
	movl	%eax, %edx
	movq	-232(%rbp), %rax
	addq	%rax, %rdx
	movl	-12(%rbp), %eax
	movzbl	-224(%rbp,%rax), %eax
	movb	%al, (%rdx)
	subl	$2, -4(%rbp)
.L437:
	cmpl	$99, -240(%rbp)
	ja	.L438
	cmpl	$9, -240(%rbp)
	jbe	.L439
	movl	-240(%rbp), %eax
	addl	%eax, %eax
	movl	%eax, -8(%rbp)
	movl	-8(%rbp), %eax
	leal	1(%rax), %ecx
	movq	-232(%rbp), %rax
	leaq	1(%rax), %rdx
	movl	%ecx, %eax
	movzbl	-224(%rbp,%rax), %eax
	movb	%al, (%rdx)
	movl	-8(%rbp), %eax
	movzbl	-224(%rbp,%rax), %edx
	movq	-232(%rbp), %rax
	movb	%dl, (%rax)
	jmp	.L441
.L439:
	movl	-240(%rbp), %eax
	addl	$48, %eax
	movl	%eax, %edx
	movq	-232(%rbp), %rax
	movb	%dl, (%rax)
.L441:
	nop
	leave
	.cfi_def_cfa 7, 8
	ret
	.cfi_endproc
.LFE5013:
	.size	_ZNSt8__detail18__to_chars_10_implIjEEvPcjT_, .-_ZNSt8__detail18__to_chars_10_implIjEEvPcjT_
	.section	.text._ZNSt8__detail18__to_chars_10_implImEEvPcjT_,"axG",@progbits,_ZNSt8__detail18__to_chars_10_implImEEvPcjT_,comdat
	.weak	_ZNSt8__detail18__to_chars_10_implImEEvPcjT_
	.type	_ZNSt8__detail18__to_chars_10_implImEEvPcjT_, @function
_ZNSt8__detail18__to_chars_10_implImEEvPcjT_:
.LFB5019:
	.cfi_startproc
	pushq	%rbp
	.cfi_def_cfa_offset 16
	.cfi_offset 6, -16
	movq	%rsp, %rbp
	.cfi_def_cfa_register 6
	subq	$152, %rsp
	movq	%rdi, -248(%rbp)
	movl	%esi, -252(%rbp)
	movq	%rdx, -264(%rbp)
	movabsq	$3688503277381496880, %rax
	movabsq	$3976738051646829616, %rdx
	movq	%rax, -240(%rbp)
	movq	%rdx, -232(%rbp)
	movabsq	$3544667369688283184, %rax
	movabsq	$3832902143785906737, %rdx
	movq	%rax, -224(%rbp)
	movq	%rdx, -216(%rbp)
	movabsq	$4121136918051239473, %rax
	movabsq	$3689066235924983858, %rdx
	movq	%rax, -208(%rbp)
	movq	%rdx, -200(%rbp)
	movabsq	$3977301010190316594, %rax
	movabsq	$3545230328231770162, %rdx
	movq	%rax, -192(%rbp)
	movq	%rdx, -184(%rbp)
	movabsq	$3833465102329393715, %rax
	movabsq	$4121699876594726451, %rdx
	movq	%rax, -176(%rbp)
	movq	%rdx, -168(%rbp)
	movabsq	$3689629194468470836, %rax
	movabsq	$3977863968733803572, %rdx
	movq	%rax, -160(%rbp)
	movq	%rdx, -152(%rbp)
	movabsq	$3545793286775257140, %rax
	movabsq	$3834028060872880693, %rdx
	movq	%rax, -144(%rbp)
	movq	%rdx, -136(%rbp)
	movabsq	$4122262835138213429, %rax
	movabsq	$3690192153011957814, %rdx
	movq	%rax, -128(%rbp)
	movq	%rdx, -120(%rbp)
	movabsq	$3978426927277290550, %rax
	movabsq	$3546356245318744118, %rdx
	movq	%rax, -112(%rbp)
	movq	%rdx, -104(%rbp)
	movabsq	$3834591019416367671, %rax
	movabsq	$4122825793681700407, %rdx
	movq	%rax, -96(%rbp)
	movq	%rdx, -88(%rbp)
	movabsq	$3690755111555444792, %rax
	movabsq	$3978989885820777528, %rdx
	movq	%rax, -80(%rbp)
	movq	%rdx, -72(%rbp)
	movabsq	$3546919203862231096, %rax
	movabsq	$3835153977959854649, %rdx
	movq	%rax, -64(%rbp)
	movq	%rdx, -56(%rbp)
	movabsq	$4122263930388298034, %rax
	movabsq	$16106987313379638, %rdx
	movq	%rax, -55(%rbp)
	movq	%rdx, -47(%rbp)
	movl	-252(%rbp), %eax
	subl	$1, %eax
	movl	%eax, -4(%rbp)
	jmp	.L443
.L444:
	movq	-264(%rbp), %rcx
	movq	%rcx, %rax
	shrq	$2, %rax
	movabsq	$2951479051793528259, %rdx
	mulq	%rdx
	movq	%rdx, %rax
	shrq	$2, %rax
	imulq	$100, %rax, %rdx
	movq	%rcx, %rax
	subq	%rdx, %rax
	addq	%rax, %rax
	movq	%rax, -24(%rbp)
	movq	-264(%rbp), %rax
	shrq	$2, %rax
	movabsq	$2951479051793528259, %rdx
	mulq	%rdx
	movq	%rdx, %rax
	shrq	$2, %rax
	movq	%rax, -264(%rbp)
	movq	-24(%rbp), %rax
	addq	$1, %rax
	movl	-4(%rbp), %ecx
	movq	-248(%rbp), %rdx
	addq	%rcx, %rdx
	movzbl	-240(%rbp,%rax), %eax
	movb	%al, (%rdx)
	movl	-4(%rbp), %eax
	subl	$1, %eax
	movl	%eax, %edx
	movq	-248(%rbp), %rax
	addq	%rax, %rdx
	leaq	-240(%rbp), %rcx
	movq	-24(%rbp), %rax
	addq	%rcx, %rax
	movzbl	(%rax), %eax
	movb	%al, (%rdx)
	subl	$2, -4(%rbp)
.L443:
	cmpq	$99, -264(%rbp)
	ja	.L444
	cmpq	$9, -264(%rbp)
	jbe	.L445
	movq	-264(%rbp), %rax
	addq	%rax, %rax
	movq	%rax, -16(%rbp)
	movq	-16(%rbp), %rax
	addq	$1, %rax
	movq	-248(%rbp), %rdx
	addq	$1, %rdx
	movzbl	-240(%rbp,%rax), %eax
	movb	%al, (%rdx)
	leaq	-240(%rbp), %rdx
	movq	-16(%rbp), %rax
	addq	%rdx, %rax
	movzbl	(%rax), %edx
	movq	-248(%rbp), %rax
	movb	%dl, (%rax)
	jmp	.L447
.L445:
	movq	-264(%rbp), %rax
	addl	$48, %eax
	movl	%eax, %edx
	movq	-248(%rbp), %rax
	movb	%dl, (%rax)
.L447:
	nop
	leave
	.cfi_def_cfa 7, 8
	ret
	.cfi_endproc
.LFE5019:
	.size	_ZNSt8__detail18__to_chars_10_implImEEvPcjT_, .-_ZNSt8__detail18__to_chars_10_implImEEvPcjT_
	.section	.text._ZNSt8__detail18__to_chars_10_implIyEEvPcjT_,"axG",@progbits,_ZNSt8__detail18__to_chars_10_implIyEEvPcjT_,comdat
	.weak	_ZNSt8__detail18__to_chars_10_implIyEEvPcjT_
	.type	_ZNSt8__detail18__to_chars_10_implIyEEvPcjT_, @function
_ZNSt8__detail18__to_chars_10_implIyEEvPcjT_:
.LFB5022:
	.cfi_startproc
	pushq	%rbp
	.cfi_def_cfa_offset 16
	.cfi_offset 6, -16
	movq	%rsp, %rbp
	.cfi_def_cfa_register 6
	subq	$152, %rsp
	movq	%rdi, -248(%rbp)
	movl	%esi, -252(%rbp)
	movq	%rdx, -264(%rbp)
	movabsq	$3688503277381496880, %rax
	movabsq	$3976738051646829616, %rdx
	movq	%rax, -240(%rbp)
	movq	%rdx, -232(%rbp)
	movabsq	$3544667369688283184, %rax
	movabsq	$3832902143785906737, %rdx
	movq	%rax, -224(%rbp)
	movq	%rdx, -216(%rbp)
	movabsq	$4121136918051239473, %rax
	movabsq	$3689066235924983858, %rdx
	movq	%rax, -208(%rbp)
	movq	%rdx, -200(%rbp)
	movabsq	$3977301010190316594, %rax
	movabsq	$3545230328231770162, %rdx
	movq	%rax, -192(%rbp)
	movq	%rdx, -184(%rbp)
	movabsq	$3833465102329393715, %rax
	movabsq	$4121699876594726451, %rdx
	movq	%rax, -176(%rbp)
	movq	%rdx, -168(%rbp)
	movabsq	$3689629194468470836, %rax
	movabsq	$3977863968733803572, %rdx
	movq	%rax, -160(%rbp)
	movq	%rdx, -152(%rbp)
	movabsq	$3545793286775257140, %rax
	movabsq	$3834028060872880693, %rdx
	movq	%rax, -144(%rbp)
	movq	%rdx, -136(%rbp)
	movabsq	$4122262835138213429, %rax
	movabsq	$3690192153011957814, %rdx
	movq	%rax, -128(%rbp)
	movq	%rdx, -120(%rbp)
	movabsq	$3978426927277290550, %rax
	movabsq	$3546356245318744118, %rdx
	movq	%rax, -112(%rbp)
	movq	%rdx, -104(%rbp)
	movabsq	$3834591019416367671, %rax
	movabsq	$4122825793681700407, %rdx
	movq	%rax, -96(%rbp)
	movq	%rdx, -88(%rbp)
	movabsq	$3690755111555444792, %rax
	movabsq	$3978989885820777528, %rdx
	movq	%rax, -80(%rbp)
	movq	%rdx, -72(%rbp)
	movabsq	$3546919203862231096, %rax
	movabsq	$3835153977959854649, %rdx
	movq	%rax, -64(%rbp)
	movq	%rdx, -56(%rbp)
	movabsq	$4122263930388298034, %rax
	movabsq	$16106987313379638, %rdx
	movq	%rax, -55(%rbp)
	movq	%rdx, -47(%rbp)
	movl	-252(%rbp), %eax
	subl	$1, %eax
	movl	%eax, -4(%rbp)
	jmp	.L449
.L450:
	movq	-264(%rbp), %rcx
	movq	%rcx, %rax
	shrq	$2, %rax
	movabsq	$2951479051793528259, %rdx
	mulq	%rdx
	movq	%rdx, %rax
	shrq	$2, %rax
	imulq	$100, %rax, %rdx
	movq	%rcx, %rax
	subq	%rdx, %rax
	addq	%rax, %rax
	movq	%rax, -24(%rbp)
	movq	-264(%rbp), %rax
	shrq	$2, %rax
	movabsq	$2951479051793528259, %rdx
	mulq	%rdx
	movq	%rdx, %rax
	shrq	$2, %rax
	movq	%rax, -264(%rbp)
	movq	-24(%rbp), %rax
	addq	$1, %rax
	movl	-4(%rbp), %ecx
	movq	-248(%rbp), %rdx
	addq	%rcx, %rdx
	movzbl	-240(%rbp,%rax), %eax
	movb	%al, (%rdx)
	movl	-4(%rbp), %eax
	subl	$1, %eax
	movl	%eax, %edx
	movq	-248(%rbp), %rax
	addq	%rax, %rdx
	leaq	-240(%rbp), %rcx
	movq	-24(%rbp), %rax
	addq	%rcx, %rax
	movzbl	(%rax), %eax
	movb	%al, (%rdx)
	subl	$2, -4(%rbp)
.L449:
	cmpq	$99, -264(%rbp)
	ja	.L450
	cmpq	$9, -264(%rbp)
	jbe	.L451
	movq	-264(%rbp), %rax
	addq	%rax, %rax
	movq	%rax, -16(%rbp)
	movq	-16(%rbp), %rax
	addq	$1, %rax
	movq	-248(%rbp), %rdx
	addq	$1, %rdx
	movzbl	-240(%rbp,%rax), %eax
	movb	%al, (%rdx)
	leaq	-240(%rbp), %rdx
	movq	-16(%rbp), %rax
	addq	%rdx, %rax
	movzbl	(%rax), %edx
	movq	-248(%rbp), %rax
	movb	%dl, (%rax)
	jmp	.L453
.L451:
	movq	-264(%rbp), %rax
	addl	$48, %eax
	movl	%eax, %edx
	movq	-248(%rbp), %rax
	movb	%dl, (%rax)
.L453:
	nop
	leave
	.cfi_def_cfa 7, 8
	ret
	.cfi_endproc
.LFE5022:
	.size	_ZNSt8__detail18__to_chars_10_implIyEEvPcjT_, .-_ZNSt8__detail18__to_chars_10_implIyEEvPcjT_
	.section	.text._ZNKSt7__cxx1112basic_stringIcSt11char_traitsIcESaIcEEcvSt17basic_string_viewIcS2_EEv,"axG",@progbits,_ZNKSt7__cxx1112basic_stringIcSt11char_traitsIcESaIcEEcvSt17basic_string_viewIcS2_EEv,comdat
	.align 2
	.weak	_ZNKSt7__cxx1112basic_stringIcSt11char_traitsIcESaIcEEcvSt17basic_string_viewIcS2_EEv
	.type	_ZNKSt7__cxx1112basic_stringIcSt11char_traitsIcESaIcEEcvSt17basic_string_viewIcS2_EEv, @function
_ZNKSt7__cxx1112basic_stringIcSt11char_traitsIcESaIcEEcvSt17basic_string_viewIcS2_EEv:
.LFB5106:
	.cfi_startproc
	pushq	%rbp
	.cfi_def_cfa_offset 16
	.cfi_offset 6, -16
	movq	%rsp, %rbp
	.cfi_def_cfa_register 6
	pushq	%rbx
	subq	$40, %rsp
	.cfi_offset 3, -24
	movq	%rdi, -40(%rbp)
	movq	-40(%rbp), %rax
	movq	%rax, %rdi
	call	_ZNKSt7__cxx1112basic_stringIcSt11char_traitsIcESaIcEE4sizeEv
	movq	%rax, %rbx
	movq	-40(%rbp), %rax
	movq	%rax, %rdi
	call	_ZNKSt7__cxx1112basic_stringIcSt11char_traitsIcESaIcEE4dataEv
	movq	%rax, %rcx
	leaq	-32(%rbp), %rax
	movq	%rbx, %rdx
	movq	%rcx, %rsi
	movq	%rax, %rdi
	call	_ZNSt17basic_string_viewIcSt11char_traitsIcEEC1EPKcm
	movq	-32(%rbp), %rax
	movq	-24(%rbp), %rdx
	movq	-8(%rbp), %rbx
	leave
	.cfi_def_cfa 7, 8
	ret
	.cfi_endproc
.LFE5106:
	.size	_ZNKSt7__cxx1112basic_stringIcSt11char_traitsIcESaIcEEcvSt17basic_string_viewIcS2_EEv, .-_ZNKSt7__cxx1112basic_stringIcSt11char_traitsIcESaIcEEcvSt17basic_string_viewIcS2_EEv
	.section	.text._ZSt3minImERKT_S2_S2_,"axG",@progbits,_ZSt3minImERKT_S2_S2_,comdat
	.weak	_ZSt3minImERKT_S2_S2_
	.type	_ZSt3minImERKT_S2_S2_, @function
_ZSt3minImERKT_S2_S2_:
.LFB5193:
	.cfi_startproc
	pushq	%rbp
	.cfi_def_cfa_offset 16
	.cfi_offset 6, -16
	movq	%rsp, %rbp
	.cfi_def_cfa_register 6
	movq	%rdi, -8(%rbp)
	movq	%rsi, -16(%rbp)
	movq	-16(%rbp), %rax
	movq	(%rax), %rdx
	movq	-8(%rbp), %rax
	movq	(%rax), %rax
	cmpq	%rax, %rdx
	jnb	.L457
	movq	-16(%rbp), %rax
	jmp	.L458
.L457:
	movq	-8(%rbp), %rax
.L458:
	popq	%rbp
	.cfi_def_cfa 7, 8
	ret
	.cfi_endproc
.LFE5193:
	.size	_ZSt3minImERKT_S2_S2_, .-_ZSt3minImERKT_S2_S2_
	.section	.text._ZNKSt7__cxx1112basic_stringIcSt11char_traitsIcESaIcEE8max_sizeEv,"axG",@progbits,_ZNKSt7__cxx1112basic_stringIcSt11char_traitsIcESaIcEE8max_sizeEv,comdat
	.align 2
	.weak	_ZNKSt7__cxx1112basic_stringIcSt11char_traitsIcESaIcEE8max_sizeEv
	.type	_ZNKSt7__cxx1112basic_stringIcSt11char_traitsIcESaIcEE8max_sizeEv, @function
_ZNKSt7__cxx1112basic_stringIcSt11char_traitsIcESaIcEE8max_sizeEv:
.LFB5190:
	.cfi_startproc
	pushq	%rbp
	.cfi_def_cfa_offset 16
	.cfi_offset 6, -16
	movq	%rsp, %rbp
	.cfi_def_cfa_register 6
	subq	$32, %rsp
	movq	%rdi, -24(%rbp)
	movabsq	$9223372036854775807, %rax
	movq	%rax, -8(%rbp)
	movq	$-1, -16(%rbp)
	leaq	-16(%rbp), %rdx
	leaq	-8(%rbp), %rax
	movq	%rdx, %rsi
	movq	%rax, %rdi
	call	_ZSt3minImERKT_S2_S2_
	movq	(%rax), %rax
	subq	$1, %rax
	leave
	.cfi_def_cfa 7, 8
	ret
	.cfi_endproc
.LFE5190:
	.size	_ZNKSt7__cxx1112basic_stringIcSt11char_traitsIcESaIcEE8max_sizeEv, .-_ZNKSt7__cxx1112basic_stringIcSt11char_traitsIcESaIcEE8max_sizeEv
	.section	.text._ZSt11upper_boundIPKDiDiET_S2_S2_RKT0_,"axG",@progbits,_ZSt11upper_boundIPKDiDiET_S2_S2_RKT0_,comdat
	.weak	_ZSt11upper_boundIPKDiDiET_S2_S2_RKT0_
	.type	_ZSt11upper_boundIPKDiDiET_S2_S2_RKT0_, @function
_ZSt11upper_boundIPKDiDiET_S2_S2_RKT0_:
.LFB5195:
	.cfi_startproc
	pushq	%rbp
	.cfi_def_cfa_offset 16
	.cfi_offset 6, -16
	movq	%rsp, %rbp
	.cfi_def_cfa_register 6
	subq	$32, %rsp
	movq	%rdi, -8(%rbp)
	movq	%rsi, -16(%rbp)
	movq	%rdx, -24(%rbp)
	call	_ZN9__gnu_cxx5__ops15__val_less_iterEv
	movq	-24(%rbp), %rdx
	movq	-16(%rbp), %rcx
	movq	-8(%rbp), %rax
	movq	%rcx, %rsi
	movq	%rax, %rdi
	call	_ZSt13__upper_boundIPKDiDiN9__gnu_cxx5__ops14_Val_less_iterEET_S5_S5_RKT0_T1_
	leave
	.cfi_def_cfa 7, 8
	ret
	.cfi_endproc
.LFE5195:
	.size	_ZSt11upper_boundIPKDiDiET_S2_S2_RKT0_, .-_ZSt11upper_boundIPKDiDiET_S2_S2_RKT0_
	.section	.text._ZSt11lower_boundIPKjjET_S2_S2_RKT0_,"axG",@progbits,_ZSt11lower_boundIPKjjET_S2_S2_RKT0_,comdat
	.weak	_ZSt11lower_boundIPKjjET_S2_S2_RKT0_
	.type	_ZSt11lower_boundIPKjjET_S2_S2_RKT0_, @function
_ZSt11lower_boundIPKjjET_S2_S2_RKT0_:
.LFB5197:
	.cfi_startproc
	pushq	%rbp
	.cfi_def_cfa_offset 16
	.cfi_offset 6, -16
	movq	%rsp, %rbp
	.cfi_def_cfa_register 6
	subq	$32, %rsp
	movq	%rdi, -8(%rbp)
	movq	%rsi, -16(%rbp)
	movq	%rdx, -24(%rbp)
	call	_ZN9__gnu_cxx5__ops15__iter_less_valEv
	movq	-24(%rbp), %rdx
	movq	-16(%rbp), %rcx
	movq	-8(%rbp), %rax
	movq	%rcx, %rsi
	movq	%rax, %rdi
	call	_ZSt13__lower_boundIPKjjN9__gnu_cxx5__ops14_Iter_less_valEET_S5_S5_RKT0_T1_
	leave
	.cfi_def_cfa 7, 8
	ret
	.cfi_endproc
.LFE5197:
	.size	_ZSt11lower_boundIPKjjET_S2_S2_RKT0_, .-_ZSt11lower_boundIPKjjET_S2_S2_RKT0_
	.section	.text._ZSt4findIPKDiDiET_S2_S2_RKT0_,"axG",@progbits,_ZSt4findIPKDiDiET_S2_S2_RKT0_,comdat
	.weak	_ZSt4findIPKDiDiET_S2_S2_RKT0_
	.type	_ZSt4findIPKDiDiET_S2_S2_RKT0_, @function
_ZSt4findIPKDiDiET_S2_S2_RKT0_:
.LFB5200:
	.cfi_startproc
	pushq	%rbp
	.cfi_def_cfa_offset 16
	.cfi_offset 6, -16
	movq	%rsp, %rbp
	.cfi_def_cfa_register 6
	subq	$32, %rsp
	movq	%rdi, -8(%rbp)
	movq	%rsi, -16(%rbp)
	movq	%rdx, -24(%rbp)
	movq	-24(%rbp), %rax
	movq	%rax, %rdi
	call	_ZN9__gnu_cxx5__ops17__iter_equals_valIKDiEENS0_16_Iter_equals_valIT_EERS4_
	movq	%rax, %rdx
	movq	-16(%rbp), %rcx
	movq	-8(%rbp), %rax
	movq	%rcx, %rsi
	movq	%rax, %rdi
	call	_ZSt9__find_ifIPKDiN9__gnu_cxx5__ops16_Iter_equals_valIS0_EEET_S6_S6_T0_
	leave
	.cfi_def_cfa 7, 8
	ret
	.cfi_endproc
.LFE5200:
	.size	_ZSt4findIPKDiDiET_S2_S2_RKT0_, .-_ZSt4findIPKDiDiET_S2_S2_RKT0_
	.section	.text._ZSt12construct_atISt6localeJEQaant20is_unbounded_array_vIT_ErqXgsnwcvPvLi0E_S1_pispcl7declvalIT0_EEEEEPS1_S4_DpOS3_,"axG",@progbits,_ZSt12construct_atISt6localeJEQaant20is_unbounded_array_vIT_ErqXgsnwcvPvLi0E_S1_pispcl7declvalIT0_EEEEEPS1_S4_DpOS3_,comdat
	.weak	_ZSt12construct_atISt6localeJEQaant20is_unbounded_array_vIT_ErqXgsnwcvPvLi0E_S1_pispcl7declvalIT0_EEEEEPS1_S4_DpOS3_
	.type	_ZSt12construct_atISt6localeJEQaant20is_unbounded_array_vIT_ErqXgsnwcvPvLi0E_S1_pispcl7declvalIT0_EEEEEPS1_S4_DpOS3_, @function
_ZSt12construct_atISt6localeJEQaant20is_unbounded_array_vIT_ErqXgsnwcvPvLi0E_S1_pispcl7declvalIT0_EEEEEPS1_S4_DpOS3_:
.LFB5206:
	.cfi_startproc
	pushq	%rbp
	.cfi_def_cfa_offset 16
	.cfi_offset 6, -16
	movq	%rsp, %rbp
	.cfi_def_cfa_register 6
	pushq	%r12
	pushq	%rbx
	subq	$32, %rsp
	.cfi_offset 12, -24
	.cfi_offset 3, -32
	movq	%rdi, -40(%rbp)
	movq	-40(%rbp), %rax
	movq	%rax, -24(%rbp)
	movq	-24(%rbp), %r12
	movq	%r12, %rsi
	movl	$8, %edi
	call	_ZnwmPv
	movq	%rax, %rbx
	movq	%rbx, %rdi
	call	_ZNSt6localeC1Ev
	movl	$0, %eax
	testb	%al, %al
	je	.L469
	movq	%r12, %rsi
	movq	%rbx, %rdi
	call	_ZdlPvS_
.L469:
	movq	%rbx, %rax
	addq	$32, %rsp
	popq	%rbx
	popq	%r12
	popq	%rbp
	.cfi_def_cfa 7, 8
	ret
	.cfi_endproc
.LFE5206:
	.size	_ZSt12construct_atISt6localeJEQaant20is_unbounded_array_vIT_ErqXgsnwcvPvLi0E_S1_pispcl7declvalIT0_EEEEEPS1_S4_DpOS3_, .-_ZSt12construct_atISt6localeJEQaant20is_unbounded_array_vIT_ErqXgsnwcvPvLi0E_S1_pispcl7declvalIT0_EEEEEPS1_S4_DpOS3_
	.weak	_ZSt12construct_atISt6localeJEEPT_S2_DpOT0_
	.set	_ZSt12construct_atISt6localeJEEPT_S2_DpOT0_,_ZSt12construct_atISt6localeJEQaant20is_unbounded_array_vIT_ErqXgsnwcvPvLi0E_S1_pispcl7declvalIT0_EEEEEPS1_S4_DpOS3_
	.section	.text._ZNKSt6ranges8__access5_DataclIRNSt7__cxx1112basic_stringIcSt11char_traitsIcESaIcEEEEEDaOT_,"axG",@progbits,_ZNKSt6ranges8__access5_DataclIRNSt7__cxx1112basic_stringIcSt11char_traitsIcESaIcEEEEEDaOT_,comdat
	.align 2
	.weak	_ZNKSt6ranges8__access5_DataclIRNSt7__cxx1112basic_stringIcSt11char_traitsIcESaIcEEEEEDaOT_
	.type	_ZNKSt6ranges8__access5_DataclIRNSt7__cxx1112basic_stringIcSt11char_traitsIcESaIcEEEEEDaOT_, @function
_ZNKSt6ranges8__access5_DataclIRNSt7__cxx1112basic_stringIcSt11char_traitsIcESaIcEEEEEDaOT_:
.LFB5234:
	.cfi_startproc
	pushq	%rbp
	.cfi_def_cfa_offset 16
	.cfi_offset 6, -16
	movq	%rsp, %rbp
	.cfi_def_cfa_register 6
	subq	$16, %rsp
	movq	%rdi, -8(%rbp)
	movq	%rsi, -16(%rbp)
	movq	-16(%rbp), %rax
	movq	%rax, %rdi
	call	_ZNSt7__cxx1112basic_stringIcSt11char_traitsIcESaIcEE4dataEv
	leave
	.cfi_def_cfa 7, 8
	ret
	.cfi_endproc
.LFE5234:
	.size	_ZNKSt6ranges8__access5_DataclIRNSt7__cxx1112basic_stringIcSt11char_traitsIcESaIcEEEEEDaOT_, .-_ZNKSt6ranges8__access5_DataclIRNSt7__cxx1112basic_stringIcSt11char_traitsIcESaIcEEEEEDaOT_
	.section	.text._ZNKSt6ranges8__access5_SizeclIRNSt7__cxx1112basic_stringIcSt11char_traitsIcESaIcEEEEEDaOT_,"axG",@progbits,_ZNKSt6ranges8__access5_SizeclIRNSt7__cxx1112basic_stringIcSt11char_traitsIcESaIcEEEEEDaOT_,comdat
	.align 2
	.weak	_ZNKSt6ranges8__access5_SizeclIRNSt7__cxx1112basic_stringIcSt11char_traitsIcESaIcEEEEEDaOT_
	.type	_ZNKSt6ranges8__access5_SizeclIRNSt7__cxx1112basic_stringIcSt11char_traitsIcESaIcEEEEEDaOT_, @function
_ZNKSt6ranges8__access5_SizeclIRNSt7__cxx1112basic_stringIcSt11char_traitsIcESaIcEEEEEDaOT_:
.LFB5236:
	.cfi_startproc
	pushq	%rbp
	.cfi_def_cfa_offset 16
	.cfi_offset 6, -16
	movq	%rsp, %rbp
	.cfi_def_cfa_register 6
	subq	$16, %rsp
	movq	%rdi, -8(%rbp)
	movq	%rsi, -16(%rbp)
	movq	-16(%rbp), %rax
	movq	%rax, %rdi
	call	_ZNKSt7__cxx1112basic_stringIcSt11char_traitsIcESaIcEE4sizeEv
	leave
	.cfi_def_cfa 7, 8
	ret
	.cfi_endproc
.LFE5236:
	.size	_ZNKSt6ranges8__access5_SizeclIRNSt7__cxx1112basic_stringIcSt11char_traitsIcESaIcEEEEEDaOT_, .-_ZNKSt6ranges8__access5_SizeclIRNSt7__cxx1112basic_stringIcSt11char_traitsIcESaIcEEEEEDaOT_
	.section	.text._ZNSt8__format9_Seq_sinkINSt7__cxx1112basic_stringIcSt11char_traitsIcESaIcEEEE4viewEv,"axG",@progbits,_ZNSt8__format9_Seq_sinkINSt7__cxx1112basic_stringIcSt11char_traitsIcESaIcEEEE4viewEv,comdat
	.align 2
	.weak	_ZNSt8__format9_Seq_sinkINSt7__cxx1112basic_stringIcSt11char_traitsIcESaIcEEEE4viewEv
	.type	_ZNSt8__format9_Seq_sinkINSt7__cxx1112basic_stringIcSt11char_traitsIcESaIcEEEE4viewEv, @function
_ZNSt8__format9_Seq_sinkINSt7__cxx1112basic_stringIcSt11char_traitsIcESaIcEEEE4viewEv:
.LFB5224:
	.cfi_startproc
	pushq	%rbp
	.cfi_def_cfa_offset 16
	.cfi_offset 6, -16
	movq	%rsp, %rbp
	.cfi_def_cfa_register 6
	pushq	%rbx
	subq	$104, %rsp
	.cfi_offset 3, -24
	movq	%rdi, -104(%rbp)
	movq	-104(%rbp), %rax
	movq	%rax, -24(%rbp)
	movq	-24(%rbp), %rax
	leaq	8(%rax), %rbx
	movq	-24(%rbp), %rax
	addq	$8, %rax
	movq	%rax, %rdi
	call	_ZNKSt4spanIcLm18446744073709551615EE5beginEv
	movq	%rax, -56(%rbp)
	movq	-24(%rbp), %rax
	addq	$24, %rax
	movq	%rax, -32(%rbp)
	movq	-32(%rbp), %rax
	movq	%rax, -40(%rbp)
	movq	-40(%rbp), %rax
	movq	(%rax), %rdx
	leaq	-56(%rbp), %rax
	movq	%rax, -48(%rbp)
	movq	-48(%rbp), %rax
	movq	(%rax), %rax
	subq	%rax, %rdx
	movq	%rdx, %rax
	movq	%rax, %rsi
	movq	%rbx, %rdi
	call	_ZNKSt4spanIcLm18446744073709551615EE5firstEm
	nop
	movq	%rax, -96(%rbp)
	movq	%rdx, -88(%rbp)
	movq	-104(%rbp), %rax
	addq	$288, %rax
	movq	%rax, %rdi
	call	_ZNKSt7__cxx1112basic_stringIcSt11char_traitsIcESaIcEE4sizeEv
	testq	%rax, %rax
	setne	%al
	testb	%al, %al
	je	.L479
	leaq	-96(%rbp), %rax
	movq	%rax, %rdi
	call	_ZNKSt4spanIcLm18446744073709551615EE4sizeEv
	testq	%rax, %rax
	setne	%al
	testb	%al, %al
	je	.L480
	movq	-104(%rbp), %rax
	movq	%rax, %rdi
	call	_ZNSt8__format9_Seq_sinkINSt7__cxx1112basic_stringIcSt11char_traitsIcESaIcEEEE11_M_overflowEv
.L480:
	movq	-104(%rbp), %rax
	leaq	288(%rax), %rdx
	leaq	-80(%rbp), %rax
	movq	%rdx, %rsi
	movq	%rax, %rdi
	call	_ZNSt4spanIcLm18446744073709551615EEC1IRNSt7__cxx1112basic_stringIcSt11char_traitsIcESaIcEEEEEOT_
	movq	-80(%rbp), %rax
	movq	-72(%rbp), %rdx
	jmp	.L482
.L479:
	movq	-96(%rbp), %rax
	movq	-88(%rbp), %rdx
.L482:
	movq	-8(%rbp), %rbx
	leave
	.cfi_def_cfa 7, 8
	ret
	.cfi_endproc
.LFE5224:
	.size	_ZNSt8__format9_Seq_sinkINSt7__cxx1112basic_stringIcSt11char_traitsIcESaIcEEEE4viewEv, .-_ZNSt8__format9_Seq_sinkINSt7__cxx1112basic_stringIcSt11char_traitsIcESaIcEEEE4viewEv
	.section	.text._ZSteqIcSt11char_traitsIcEEbSt17basic_string_viewIT_T0_ENSt13type_identityIS5_E4typeE,"axG",@progbits,_ZSteqIcSt11char_traitsIcEEbSt17basic_string_viewIT_T0_ENSt13type_identityIS5_E4typeE,comdat
	.weak	_ZSteqIcSt11char_traitsIcEEbSt17basic_string_viewIT_T0_ENSt13type_identityIS5_E4typeE
	.type	_ZSteqIcSt11char_traitsIcEEbSt17basic_string_viewIT_T0_ENSt13type_identityIS5_E4typeE, @function
_ZSteqIcSt11char_traitsIcEEbSt17basic_string_viewIT_T0_ENSt13type_identityIS5_E4typeE:
.LFB5238:
	.cfi_startproc
	pushq	%rbp
	.cfi_def_cfa_offset 16
	.cfi_offset 6, -16
	movq	%rsp, %rbp
	.cfi_def_cfa_register 6
	pushq	%rbx
	subq	$40, %rsp
	.cfi_offset 3, -24
	movq	%rdi, %rax
	movq	%rsi, %r8
	movq	%rax, %rsi
	movl	$0, %edi
	movq	%r8, %rdi
	movq	%rsi, -32(%rbp)
	movq	%rdi, -24(%rbp)
	movq	%rdx, -48(%rbp)
	movq	%rcx, -40(%rbp)
	leaq	-32(%rbp), %rax
	movq	%rax, %rdi
	call	_ZNKSt17basic_string_viewIcSt11char_traitsIcEE4sizeEv
	movq	%rax, %rbx
	leaq	-48(%rbp), %rax
	movq	%rax, %rdi
	call	_ZNKSt17basic_string_viewIcSt11char_traitsIcEE4sizeEv
	cmpq	%rax, %rbx
	jne	.L484
	movq	-48(%rbp), %rcx
	movq	-40(%rbp), %rdx
	leaq	-32(%rbp), %rax
	movq	%rcx, %rsi
	movq	%rax, %rdi
	call	_ZNKSt17basic_string_viewIcSt11char_traitsIcEE7compareES2_
	testl	%eax, %eax
	jne	.L484
	movl	$1, %eax
	jmp	.L485
.L484:
	movl	$0, %eax
.L485:
	movq	-8(%rbp), %rbx
	leave
	.cfi_def_cfa 7, 8
	ret
	.cfi_endproc
.LFE5238:
	.size	_ZSteqIcSt11char_traitsIcEEbSt17basic_string_viewIT_T0_ENSt13type_identityIS5_E4typeE, .-_ZSteqIcSt11char_traitsIcEEbSt17basic_string_viewIT_T0_ENSt13type_identityIS5_E4typeE
	.section	.text._ZSt5printIJRiEEvSt19basic_format_stringIcJDpNSt13type_identityIT_E4typeEEEDpOS3_,"axG",@progbits,_ZSt5printIJRiEEvSt19basic_format_stringIcJDpNSt13type_identityIT_E4typeEEEDpOS3_,comdat
	.weak	_ZSt5printIJRiEEvSt19basic_format_stringIcJDpNSt13type_identityIT_E4typeEEEDpOS3_
	.type	_ZSt5printIJRiEEvSt19basic_format_stringIcJDpNSt13type_identityIT_E4typeEEEDpOS3_, @function
_ZSt5printIJRiEEvSt19basic_format_stringIcJDpNSt13type_identityIT_E4typeEEEDpOS3_:
.LFB5305:
	.cfi_startproc
	pushq	%rbp
	.cfi_def_cfa_offset 16
	.cfi_offset 6, -16
	movq	%rsp, %rbp
	.cfi_def_cfa_register 6
	pushq	%rbx
	subq	$56, %rsp
	.cfi_offset 3, -24
	movq	%rdi, %rax
	movq	%rax, %rcx
	movl	$0, %ebx
	movq	%rsi, %rbx
	movq	%rcx, -48(%rbp)
	movq	%rbx, -40(%rbp)
	movq	%rdx, -56(%rbp)
	movq	-56(%rbp), %rax
	movq	%rax, -24(%rbp)
	movq	-24(%rbp), %rcx
	movq	stdout(%rip), %rax
	movq	-48(%rbp), %rsi
	movq	-40(%rbp), %rdx
	movq	%rax, %rdi
	call	_ZSt5printIJRiEEvP8_IO_FILESt19basic_format_stringIcJDpNSt13type_identityIT_E4typeEEEDpOS5_
	nop
	movq	-8(%rbp), %rbx
	leave
	.cfi_def_cfa 7, 8
	ret
	.cfi_endproc
.LFE5305:
	.size	_ZSt5printIJRiEEvSt19basic_format_stringIcJDpNSt13type_identityIT_E4typeEEEDpOS3_, .-_ZSt5printIJRiEEvSt19basic_format_stringIcJDpNSt13type_identityIT_E4typeEEEDpOS3_
	.section	.text._ZSt4sqrtIiEN9__gnu_cxx11__enable_ifIXsrSt12__is_integerIT_E7__valueEdE6__typeES3_,"axG",@progbits,_ZSt4sqrtIiEN9__gnu_cxx11__enable_ifIXsrSt12__is_integerIT_E7__valueEdE6__typeES3_,comdat
	.weak	_ZSt4sqrtIiEN9__gnu_cxx11__enable_ifIXsrSt12__is_integerIT_E7__valueEdE6__typeES3_
	.type	_ZSt4sqrtIiEN9__gnu_cxx11__enable_ifIXsrSt12__is_integerIT_E7__valueEdE6__typeES3_, @function
_ZSt4sqrtIiEN9__gnu_cxx11__enable_ifIXsrSt12__is_integerIT_E7__valueEdE6__typeES3_:
.LFB5306:
	.cfi_startproc
	pushq	%rbp
	.cfi_def_cfa_offset 16
	.cfi_offset 6, -16
	movq	%rsp, %rbp
	.cfi_def_cfa_register 6
	subq	$16, %rsp
	movl	%edi, -4(%rbp)
	pxor	%xmm1, %xmm1
	cvtsi2sdl	-4(%rbp), %xmm1
	movq	%xmm1, %rax
	movq	%rax, %xmm0
	call	sqrt
	leave
	.cfi_def_cfa 7, 8
	ret
	.cfi_endproc
.LFE5306:
	.size	_ZSt4sqrtIiEN9__gnu_cxx11__enable_ifIXsrSt12__is_integerIT_E7__valueEdE6__typeES3_, .-_ZSt4sqrtIiEN9__gnu_cxx11__enable_ifIXsrSt12__is_integerIT_E7__valueEdE6__typeES3_
	.section	.text._ZSt5printIJdEEvSt19basic_format_stringIcJDpNSt13type_identityIT_E4typeEEEDpOS2_,"axG",@progbits,_ZSt5printIJdEEvSt19basic_format_stringIcJDpNSt13type_identityIT_E4typeEEEDpOS2_,comdat
	.weak	_ZSt5printIJdEEvSt19basic_format_stringIcJDpNSt13type_identityIT_E4typeEEEDpOS2_
	.type	_ZSt5printIJdEEvSt19basic_format_stringIcJDpNSt13type_identityIT_E4typeEEEDpOS2_, @function
_ZSt5printIJdEEvSt19basic_format_stringIcJDpNSt13type_identityIT_E4typeEEEDpOS2_:
.LFB5307:
	.cfi_startproc
	pushq	%rbp
	.cfi_def_cfa_offset 16
	.cfi_offset 6, -16
	movq	%rsp, %rbp
	.cfi_def_cfa_register 6
	pushq	%rbx
	subq	$56, %rsp
	.cfi_offset 3, -24
	movq	%rdi, %rax
	movq	%rax, %rcx
	movl	$0, %ebx
	movq	%rsi, %rbx
	movq	%rcx, -48(%rbp)
	movq	%rbx, -40(%rbp)
	movq	%rdx, -56(%rbp)
	movq	-56(%rbp), %rax
	movq	%rax, -24(%rbp)
	movq	-24(%rbp), %rcx
	movq	stdout(%rip), %rax
	movq	-48(%rbp), %rsi
	movq	-40(%rbp), %rdx
	movq	%rax, %rdi
	call	_ZSt5printIJdEEvP8_IO_FILESt19basic_format_stringIcJDpNSt13type_identityIT_E4typeEEEDpOS4_
	nop
	movq	-8(%rbp), %rbx
	leave
	.cfi_def_cfa 7, 8
	ret
	.cfi_endproc
.LFE5307:
	.size	_ZSt5printIJdEEvSt19basic_format_stringIcJDpNSt13type_identityIT_E4typeEEEDpOS2_, .-_ZSt5printIJdEEvSt19basic_format_stringIcJDpNSt13type_identityIT_E4typeEEEDpOS2_
	.section	.text._ZNSt8__format14__parse_arg_idIcEESt4pairItPKT_ES4_S4_,"axG",@progbits,_ZNSt8__format14__parse_arg_idIcEESt4pairItPKT_ES4_S4_,comdat
	.weak	_ZNSt8__format14__parse_arg_idIcEESt4pairItPKT_ES4_S4_
	.type	_ZNSt8__format14__parse_arg_idIcEESt4pairItPKT_ES4_S4_, @function
_ZNSt8__format14__parse_arg_idIcEESt4pairItPKT_ES4_S4_:
.LFB5308:
	.cfi_startproc
	pushq	%rbp
	.cfi_def_cfa_offset 16
	.cfi_offset 6, -16
	movq	%rsp, %rbp
	.cfi_def_cfa_register 6
	subq	$112, %rsp
	movq	%rdi, -104(%rbp)
	movq	%rsi, -112(%rbp)
	movq	-104(%rbp), %rax
	cmpq	-112(%rbp), %rax
	movq	-104(%rbp), %rax
	movzbl	(%rax), %eax
	cmpb	$48, %al
	jne	.L495
	movl	$0, -60(%rbp)
	movq	-104(%rbp), %rax
	addq	$1, %rax
	movq	%rax, -56(%rbp)
	leaq	-56(%rbp), %rdx
	leaq	-60(%rbp), %rcx
	leaq	-80(%rbp), %rax
	movq	%rcx, %rsi
	movq	%rax, %rdi
	call	_ZNSt4pairItPKcEC1IiS1_EEOT_OT0_
	movq	-80(%rbp), %rax
	movq	-72(%rbp), %rdx
	jmp	.L496
.L495:
	movq	-104(%rbp), %rax
	movzbl	(%rax), %eax
	cmpb	$48, %al
	jle	.L497
	movq	-104(%rbp), %rax
	movzbl	(%rax), %eax
	cmpb	$57, %al
	jg	.L497
	movq	-104(%rbp), %rax
	movzbl	(%rax), %eax
	cbtw
	subl	$48, %eax
	movw	%ax, -82(%rbp)
	movq	-104(%rbp), %rax
	addq	$1, %rax
	movq	%rax, -96(%rbp)
	movq	-96(%rbp), %rax
	cmpq	%rax, -112(%rbp)
	je	.L498
	movq	-96(%rbp), %rax
	movzbl	(%rax), %eax
	cmpb	$47, %al
	jle	.L498
	movq	-96(%rbp), %rax
	movzbl	(%rax), %eax
	cmpb	$57, %al
	jle	.L499
.L498:
	leaq	-96(%rbp), %rdx
	leaq	-82(%rbp), %rcx
	leaq	-48(%rbp), %rax
	movq	%rcx, %rsi
	movq	%rax, %rdi
	call	_ZNSt4pairItPKcEC1ERKtRKS1_Qcl16_S_constructibleIRKT_RKT0_EE
	movq	-48(%rbp), %rax
	movq	-40(%rbp), %rdx
	jmp	.L496
.L499:
	movq	-112(%rbp), %rdx
	movq	-104(%rbp), %rax
	movq	%rdx, %rsi
	movq	%rax, %rdi
	call	_ZNSt8__format15__parse_integerIcEESt4pairItPKT_ES4_S4_
	movq	%rdx, %rcx
	movq	%rcx, %rdx
	jmp	.L496
.L497:
	movl	$0, -12(%rbp)
	movq	$0, -8(%rbp)
	leaq	-8(%rbp), %rdx
	leaq	-12(%rbp), %rcx
	leaq	-32(%rbp), %rax
	movq	%rcx, %rsi
	movq	%rax, %rdi
	call	_ZNSt4pairItPKcEC1IiDnEEOT_OT0_
	movq	-32(%rbp), %rax
	movq	-24(%rbp), %rdx
.L496:
	movl	%eax, %ecx
	movl	%ecx, %eax
	leave
	.cfi_def_cfa 7, 8
	ret
	.cfi_endproc
.LFE5308:
	.size	_ZNSt8__format14__parse_arg_idIcEESt4pairItPKT_ES4_S4_, .-_ZNSt8__format14__parse_arg_idIcEESt4pairItPKT_ES4_S4_
	.section	.text._ZNSt26basic_format_parse_contextIcE12check_arg_idEm,"axG",@progbits,_ZNSt26basic_format_parse_contextIcE12check_arg_idEm,comdat
	.align 2
	.weak	_ZNSt26basic_format_parse_contextIcE12check_arg_idEm
	.type	_ZNSt26basic_format_parse_contextIcE12check_arg_idEm, @function
_ZNSt26basic_format_parse_contextIcE12check_arg_idEm:
.LFB5319:
	.cfi_startproc
	pushq	%rbp
	.cfi_def_cfa_offset 16
	.cfi_offset 6, -16
	movq	%rsp, %rbp
	.cfi_def_cfa_register 6
	subq	$16, %rsp
	movq	%rdi, -8(%rbp)
	movq	%rsi, -16(%rbp)
	movq	-8(%rbp), %rax
	movl	16(%rax), %eax
	cmpl	$2, %eax
	jne	.L502
	call	_ZNSt8__format39__conflicting_indexing_in_format_stringEv
.L502:
	movq	-8(%rbp), %rax
	movl	$1, 16(%rax)
	call	_ZSt21is_constant_evaluatedv
	testb	%al, %al
	je	.L504
	movq	-8(%rbp), %rax
	movq	32(%rax), %rax
	cmpq	%rax, -16(%rbp)
	jb	.L504
	call	_ZNSt8__format33__invalid_arg_id_in_format_stringEv
.L504:
	nop
	leave
	.cfi_def_cfa 7, 8
	ret
	.cfi_endproc
.LFE5319:
	.size	_ZNSt26basic_format_parse_contextIcE12check_arg_idEm, .-_ZNSt26basic_format_parse_contextIcE12check_arg_idEm
	.section	.rodata
.LC17:
	.string	"{"
	.section	.text._ZNSt8__format5_SpecIcE23_M_parse_fill_and_alignEPKcS3_,"axG",@progbits,_ZNSt8__format5_SpecIcE23_M_parse_fill_and_alignEPKcS3_,comdat
	.align 2
	.weak	_ZNSt8__format5_SpecIcE23_M_parse_fill_and_alignEPKcS3_
	.type	_ZNSt8__format5_SpecIcE23_M_parse_fill_and_alignEPKcS3_, @function
_ZNSt8__format5_SpecIcE23_M_parse_fill_and_alignEPKcS3_:
.LFB5320:
	.cfi_startproc
	pushq	%rbp
	.cfi_def_cfa_offset 16
	.cfi_offset 6, -16
	movq	%rsp, %rbp
	.cfi_def_cfa_register 6
	subq	$48, %rsp
	movq	%rdi, -24(%rbp)
	movq	%rsi, -32(%rbp)
	movq	%rdx, -40(%rbp)
	leaq	-16(%rbp), %rax
	movl	$.LC17, %esi
	movq	%rax, %rdi
	call	_ZNSt17basic_string_viewIcSt11char_traitsIcEEC1EPKc
	movq	-16(%rbp), %rcx
	movq	-8(%rbp), %rdi
	movq	-40(%rbp), %rdx
	movq	-32(%rbp), %rsi
	movq	-24(%rbp), %rax
	movq	%rdi, %r8
	movq	%rax, %rdi
	call	_ZNSt8__format5_SpecIcE23_M_parse_fill_and_alignEPKcS3_St17basic_string_viewIcSt11char_traitsIcEE
	leave
	.cfi_def_cfa 7, 8
	ret
	.cfi_endproc
.LFE5320:
	.size	_ZNSt8__format5_SpecIcE23_M_parse_fill_and_alignEPKcS3_, .-_ZNSt8__format5_SpecIcE23_M_parse_fill_and_alignEPKcS3_
	.section	.text._ZNSt8__format5_SpecIcE13_M_parse_signEPKcS3_,"axG",@progbits,_ZNSt8__format5_SpecIcE13_M_parse_signEPKcS3_,comdat
	.align 2
	.weak	_ZNSt8__format5_SpecIcE13_M_parse_signEPKcS3_
	.type	_ZNSt8__format5_SpecIcE13_M_parse_signEPKcS3_, @function
_ZNSt8__format5_SpecIcE13_M_parse_signEPKcS3_:
.LFB5321:
	.cfi_startproc
	pushq	%rbp
	.cfi_def_cfa_offset 16
	.cfi_offset 6, -16
	movq	%rsp, %rbp
	.cfi_def_cfa_register 6
	subq	$48, %rsp
	movq	%rdi, -24(%rbp)
	movq	%rsi, -32(%rbp)
	movq	%rdx, -40(%rbp)
	movq	-32(%rbp), %rax
	movzbl	(%rax), %eax
	movsbl	%al, %eax
	movl	%eax, %edi
	call	_ZNSt8__format5_SpecIcE7_S_signEc
	movl	%eax, -4(%rbp)
	cmpl	$0, -4(%rbp)
	je	.L508
	movl	-4(%rbp), %eax
	andl	$3, %eax
	movq	-24(%rbp), %rdx
	andl	$3, %eax
	leal	0(,%rax,4), %ecx
	movzbl	(%rdx), %eax
	andl	$-13, %eax
	orl	%ecx, %eax
	movb	%al, (%rdx)
	movq	-32(%rbp), %rax
	addq	$1, %rax
	jmp	.L509
.L508:
	movq	-32(%rbp), %rax
.L509:
	leave
	.cfi_def_cfa 7, 8
	ret
	.cfi_endproc
.LFE5321:
	.size	_ZNSt8__format5_SpecIcE13_M_parse_signEPKcS3_, .-_ZNSt8__format5_SpecIcE13_M_parse_signEPKcS3_
	.section	.text._ZNSt8__format5_SpecIcE23_M_parse_alternate_formEPKcS3_,"axG",@progbits,_ZNSt8__format5_SpecIcE23_M_parse_alternate_formEPKcS3_,comdat
	.align 2
	.weak	_ZNSt8__format5_SpecIcE23_M_parse_alternate_formEPKcS3_
	.type	_ZNSt8__format5_SpecIcE23_M_parse_alternate_formEPKcS3_, @function
_ZNSt8__format5_SpecIcE23_M_parse_alternate_formEPKcS3_:
.LFB5322:
	.cfi_startproc
	pushq	%rbp
	.cfi_def_cfa_offset 16
	.cfi_offset 6, -16
	movq	%rsp, %rbp
	.cfi_def_cfa_register 6
	movq	%rdi, -8(%rbp)
	movq	%rsi, -16(%rbp)
	movq	%rdx, -24(%rbp)
	movq	-16(%rbp), %rax
	movzbl	(%rax), %eax
	cmpb	$35, %al
	jne	.L511
	movq	-8(%rbp), %rax
	movzbl	(%rax), %edx
	orl	$16, %edx
	movb	%dl, (%rax)
	addq	$1, -16(%rbp)
.L511:
	movq	-16(%rbp), %rax
	popq	%rbp
	.cfi_def_cfa 7, 8
	ret
	.cfi_endproc
.LFE5322:
	.size	_ZNSt8__format5_SpecIcE23_M_parse_alternate_formEPKcS3_, .-_ZNSt8__format5_SpecIcE23_M_parse_alternate_formEPKcS3_
	.section	.text._ZNSt8__format5_SpecIcE18_M_parse_zero_fillEPKcS3_,"axG",@progbits,_ZNSt8__format5_SpecIcE18_M_parse_zero_fillEPKcS3_,comdat
	.align 2
	.weak	_ZNSt8__format5_SpecIcE18_M_parse_zero_fillEPKcS3_
	.type	_ZNSt8__format5_SpecIcE18_M_parse_zero_fillEPKcS3_, @function
_ZNSt8__format5_SpecIcE18_M_parse_zero_fillEPKcS3_:
.LFB5323:
	.cfi_startproc
	pushq	%rbp
	.cfi_def_cfa_offset 16
	.cfi_offset 6, -16
	movq	%rsp, %rbp
	.cfi_def_cfa_register 6
	movq	%rdi, -8(%rbp)
	movq	%rsi, -16(%rbp)
	movq	%rdx, -24(%rbp)
	movq	-16(%rbp), %rax
	movzbl	(%rax), %eax
	cmpb	$48, %al
	jne	.L514
	movq	-8(%rbp), %rax
	movzbl	(%rax), %edx
	orl	$64, %edx
	movb	%dl, (%rax)
	addq	$1, -16(%rbp)
.L514:
	movq	-16(%rbp), %rax
	popq	%rbp
	.cfi_def_cfa 7, 8
	ret
	.cfi_endproc
.LFE5323:
	.size	_ZNSt8__format5_SpecIcE18_M_parse_zero_fillEPKcS3_, .-_ZNSt8__format5_SpecIcE18_M_parse_zero_fillEPKcS3_
	.section	.rodata
	.align 8
.LC18:
	.string	"format error: width must be non-zero in format string"
	.section	.text._ZNSt8__format5_SpecIcE14_M_parse_widthEPKcS3_RSt26basic_format_parse_contextIcE,"axG",@progbits,_ZNSt8__format5_SpecIcE14_M_parse_widthEPKcS3_RSt26basic_format_parse_contextIcE,comdat
	.align 2
	.weak	_ZNSt8__format5_SpecIcE14_M_parse_widthEPKcS3_RSt26basic_format_parse_contextIcE
	.type	_ZNSt8__format5_SpecIcE14_M_parse_widthEPKcS3_RSt26basic_format_parse_contextIcE, @function
_ZNSt8__format5_SpecIcE14_M_parse_widthEPKcS3_RSt26basic_format_parse_contextIcE:
.LFB5324:
	.cfi_startproc
	pushq	%rbp
	.cfi_def_cfa_offset 16
	.cfi_offset 6, -16
	movq	%rsp, %rbp
	.cfi_def_cfa_register 6
	subq	$48, %rsp
	movq	%rdi, -24(%rbp)
	movq	%rsi, -32(%rbp)
	movq	%rdx, -40(%rbp)
	movq	%rcx, -48(%rbp)
	movb	$0, -9(%rbp)
	movq	-32(%rbp), %rax
	movzbl	(%rax), %eax
	cmpb	$48, %al
	jne	.L517
	movl	$.LC18, %edi
	call	_ZSt20__throw_format_errorPKc
.L517:
	movq	-24(%rbp), %rax
	leaq	4(%rax), %rdi
	movq	-48(%rbp), %rcx
	leaq	-9(%rbp), %rdx
	movq	-40(%rbp), %rsi
	movq	-32(%rbp), %rax
	movq	%rcx, %r8
	movq	%rdx, %rcx
	movq	%rdi, %rdx
	movq	%rax, %rdi
	call	_ZNSt8__format5_SpecIcE27_S_parse_width_or_precisionEPKcS3_RtRbRSt26basic_format_parse_contextIcE
	movq	%rax, -8(%rbp)
	movq	-8(%rbp), %rax
	cmpq	-32(%rbp), %rax
	je	.L518
	movzbl	-9(%rbp), %eax
	testb	%al, %al
	je	.L519
	movl	$2, %edx
	jmp	.L520
.L519:
	movl	$1, %edx
.L520:
	movq	-24(%rbp), %rax
	movzbl	%dl, %edx
	andl	$3, %edx
	movl	%edx, %ecx
	sall	$7, %ecx
	movzwl	(%rax), %edx
	andw	$-385, %dx
	orl	%ecx, %edx
	movw	%dx, (%rax)
.L518:
	movq	-8(%rbp), %rax
	leave
	.cfi_def_cfa 7, 8
	ret
	.cfi_endproc
.LFE5324:
	.size	_ZNSt8__format5_SpecIcE14_M_parse_widthEPKcS3_RSt26basic_format_parse_contextIcE, .-_ZNSt8__format5_SpecIcE14_M_parse_widthEPKcS3_RSt26basic_format_parse_contextIcE
	.section	.text._ZNSt8__format5_SpecIcE15_M_parse_localeEPKcS3_,"axG",@progbits,_ZNSt8__format5_SpecIcE15_M_parse_localeEPKcS3_,comdat
	.align 2
	.weak	_ZNSt8__format5_SpecIcE15_M_parse_localeEPKcS3_
	.type	_ZNSt8__format5_SpecIcE15_M_parse_localeEPKcS3_, @function
_ZNSt8__format5_SpecIcE15_M_parse_localeEPKcS3_:
.LFB5325:
	.cfi_startproc
	pushq	%rbp
	.cfi_def_cfa_offset 16
	.cfi_offset 6, -16
	movq	%rsp, %rbp
	.cfi_def_cfa_register 6
	movq	%rdi, -8(%rbp)
	movq	%rsi, -16(%rbp)
	movq	%rdx, -24(%rbp)
	movq	-16(%rbp), %rax
	movzbl	(%rax), %eax
	cmpb	$76, %al
	jne	.L523
	movq	-8(%rbp), %rax
	movzbl	(%rax), %edx
	orl	$32, %edx
	movb	%dl, (%rax)
	addq	$1, -16(%rbp)
.L523:
	movq	-16(%rbp), %rax
	popq	%rbp
	.cfi_def_cfa 7, 8
	ret
	.cfi_endproc
.LFE5325:
	.size	_ZNSt8__format5_SpecIcE15_M_parse_localeEPKcS3_, .-_ZNSt8__format5_SpecIcE15_M_parse_localeEPKcS3_
	.section	.rodata
	.align 8
.LC19:
	.string	"format error: missing precision after '.' in format string"
	.section	.text._ZNSt8__format5_SpecIcE18_M_parse_precisionEPKcS3_RSt26basic_format_parse_contextIcE,"axG",@progbits,_ZNSt8__format5_SpecIcE18_M_parse_precisionEPKcS3_RSt26basic_format_parse_contextIcE,comdat
	.align 2
	.weak	_ZNSt8__format5_SpecIcE18_M_parse_precisionEPKcS3_RSt26basic_format_parse_contextIcE
	.type	_ZNSt8__format5_SpecIcE18_M_parse_precisionEPKcS3_RSt26basic_format_parse_contextIcE, @function
_ZNSt8__format5_SpecIcE18_M_parse_precisionEPKcS3_RSt26basic_format_parse_contextIcE:
.LFB5326:
	.cfi_startproc
	pushq	%rbp
	.cfi_def_cfa_offset 16
	.cfi_offset 6, -16
	movq	%rsp, %rbp
	.cfi_def_cfa_register 6
	subq	$48, %rsp
	movq	%rdi, -24(%rbp)
	movq	%rsi, -32(%rbp)
	movq	%rdx, -40(%rbp)
	movq	%rcx, -48(%rbp)
	movq	-32(%rbp), %rax
	movzbl	(%rax), %eax
	cmpb	$46, %al
	je	.L526
	movq	-32(%rbp), %rax
	jmp	.L532
.L526:
	addq	$1, -32(%rbp)
	movq	-32(%rbp), %rax
	movq	%rax, -8(%rbp)
	movb	$0, -9(%rbp)
	movq	-8(%rbp), %rax
	cmpq	-40(%rbp), %rax
	je	.L528
	movq	-24(%rbp), %rax
	leaq	6(%rax), %rdi
	movq	-48(%rbp), %rcx
	leaq	-9(%rbp), %rdx
	movq	-40(%rbp), %rsi
	movq	-32(%rbp), %rax
	movq	%rcx, %r8
	movq	%rdx, %rcx
	movq	%rdi, %rdx
	movq	%rax, %rdi
	call	_ZNSt8__format5_SpecIcE27_S_parse_width_or_precisionEPKcS3_RtRbRSt26basic_format_parse_contextIcE
	movq	%rax, -8(%rbp)
.L528:
	movq	-8(%rbp), %rax
	cmpq	-32(%rbp), %rax
	jne	.L529
	movl	$.LC19, %edi
	call	_ZSt20__throw_format_errorPKc
.L529:
	movzbl	-9(%rbp), %eax
	testb	%al, %al
	je	.L530
	movl	$2, %edx
	jmp	.L531
.L530:
	movl	$1, %edx
.L531:
	movq	-24(%rbp), %rax
	andl	$3, %edx
